ARM GAS  /tmp/ccSnm6QV.s 			page 1


   1              		.cpu cortex-m0plus
   2              		.eabi_attribute 20, 1
   3              		.eabi_attribute 21, 1
   4              		.eabi_attribute 23, 3
   5              		.eabi_attribute 24, 1
   6              		.eabi_attribute 25, 1
   7              		.eabi_attribute 26, 1
   8              		.eabi_attribute 30, 1
   9              		.eabi_attribute 34, 0
  10              		.eabi_attribute 18, 4
  11              		.file	"planner.cpp"
  12              		.text
  13              	.Ltext0:
  14              		.cfi_sections	.debug_frame
  15              		.section	.text._ZN7Planner5StartEv,"ax",%progbits
  16              		.align	1
  17              		.global	_ZN7Planner5StartEv
  18              		.arch armv6s-m
  19              		.syntax unified
  20              		.code	16
  21              		.thumb_func
  22              		.fpu softvfp
  24              	_ZN7Planner5StartEv:
  25              	.LVL0:
  26              	.LFB3865:
  27              		.file 1 "alohal/events/planner/planner.cpp"
   1:alohal/events/planner/planner.cpp **** #include "planner.hpp"
   2:alohal/events/planner/planner.cpp **** 
   3:alohal/events/planner/planner.cpp **** #include "device/device.hpp"
   4:alohal/events/planner/planner.cpp **** 
   5:alohal/events/planner/planner.cpp **** Planner::Planner(string name, int phase_count):
   6:alohal/events/planner/planner.cpp ****     name(name){
   7:alohal/events/planner/planner.cpp ****     phases.resize(phase_count+2);
   8:alohal/events/planner/planner.cpp **** }
   9:alohal/events/planner/planner.cpp **** 
  10:alohal/events/planner/planner.cpp **** Planner::~Planner(){
  11:alohal/events/planner/planner.cpp **** 
  12:alohal/events/planner/planner.cpp **** }
  13:alohal/events/planner/planner.cpp **** 
  14:alohal/events/planner/planner.cpp **** int Planner::Add_phase(){
  15:alohal/events/planner/planner.cpp ****     phases.resize(phases.size()+1);
  16:alohal/events/planner/planner.cpp ****     return phases.size();
  17:alohal/events/planner/planner.cpp **** }
  18:alohal/events/planner/planner.cpp **** 
  19:alohal/events/planner/planner.cpp **** void Planner::Start(){
  28              		.loc 1 19 22 view -0
  29              		.cfi_startproc
  30              		@ args = 0, pretend = 0, frame = 0
  31              		@ frame_needed = 0, uses_anonymous_args = 0
  32              		@ link register save eliminated.
  20:alohal/events/planner/planner.cpp ****     running = true;
  33              		.loc 1 20 5 view .LVU1
  34              		.loc 1 20 13 is_stmt 0 view .LVU2
  35 0000 0123     		movs	r3, #1
  36 0002 4370     		strb	r3, [r0, #1]
  21:alohal/events/planner/planner.cpp **** }
  37              		.loc 1 21 1 view .LVU3
ARM GAS  /tmp/ccSnm6QV.s 			page 2


  38              		@ sp needed
  39 0004 7047     		bx	lr
  40              		.cfi_endproc
  41              	.LFE3865:
  43              		.section	.text._ZN7Planner4StopEv,"ax",%progbits
  44              		.align	1
  45              		.global	_ZN7Planner4StopEv
  46              		.syntax unified
  47              		.code	16
  48              		.thumb_func
  49              		.fpu softvfp
  51              	_ZN7Planner4StopEv:
  52              	.LVL1:
  53              	.LFB3866:
  22:alohal/events/planner/planner.cpp **** 
  23:alohal/events/planner/planner.cpp **** void Planner::Stop(){
  54              		.loc 1 23 21 is_stmt 1 view -0
  55              		.cfi_startproc
  56              		@ args = 0, pretend = 0, frame = 0
  57              		@ frame_needed = 0, uses_anonymous_args = 0
  58              		@ link register save eliminated.
  24:alohal/events/planner/planner.cpp ****     running = false;
  59              		.loc 1 24 5 view .LVU5
  60              		.loc 1 24 13 is_stmt 0 view .LVU6
  61 0000 0023     		movs	r3, #0
  62 0002 4370     		strb	r3, [r0, #1]
  25:alohal/events/planner/planner.cpp **** }
  63              		.loc 1 25 1 view .LVU7
  64              		@ sp needed
  65 0004 7047     		bx	lr
  66              		.cfi_endproc
  67              	.LFE3866:
  69              		.section	.text._ZN7Planner8RegisterEv,"ax",%progbits
  70              		.align	1
  71              		.global	_ZN7Planner8RegisterEv
  72              		.syntax unified
  73              		.code	16
  74              		.thumb_func
  75              		.fpu softvfp
  77              	_ZN7Planner8RegisterEv:
  78              	.LVL2:
  79              	.LFB3868:
  26:alohal/events/planner/planner.cpp **** 
  27:alohal/events/planner/planner.cpp **** void Planner::Done(){
  28:alohal/events/planner/planner.cpp ****     Stop();
  29:alohal/events/planner/planner.cpp ****     Unregister();
  30:alohal/events/planner/planner.cpp **** }
  31:alohal/events/planner/planner.cpp **** 
  32:alohal/events/planner/planner.cpp **** int Planner::Register(){
  80              		.loc 1 32 24 is_stmt 1 view -0
  81              		.cfi_startproc
  82              		@ args = 0, pretend = 0, frame = 0
  83              		@ frame_needed = 0, uses_anonymous_args = 0
  84              		.loc 1 32 24 is_stmt 0 view .LVU9
  85 0000 10B5     		push	{r4, lr}
  86              	.LCFI0:
  87              		.cfi_def_cfa_offset 8
ARM GAS  /tmp/ccSnm6QV.s 			page 3


  88              		.cfi_offset 4, -8
  89              		.cfi_offset 14, -4
  90 0002 0400     		movs	r4, r0
  33:alohal/events/planner/planner.cpp ****     int ret = device()->Register_planner(this);
  91              		.loc 1 33 5 is_stmt 1 view .LVU10
  92              		.loc 1 33 41 is_stmt 0 view .LVU11
  93 0004 FFF7FEFF 		bl	_Z6devicev
  94              	.LVL3:
  95              		.loc 1 33 41 view .LVU12
  96 0008 2100     		movs	r1, r4
  97 000a FFF7FEFF 		bl	_ZN6Device16Register_plannerEP7Planner
  98              	.LVL4:
  34:alohal/events/planner/planner.cpp ****     if(ret < 1){
  99              		.loc 1 34 5 is_stmt 1 view .LVU13
 100 000e 0028     		cmp	r0, #0
 101 0010 03DD     		ble	.L5
  35:alohal/events/planner/planner.cpp ****         //Registration failed
  36:alohal/events/planner/planner.cpp ****         return EEXIST;
  37:alohal/events/planner/planner.cpp ****     }
  38:alohal/events/planner/planner.cpp ****     registred = true;
 102              		.loc 1 38 5 view .LVU14
 103              		.loc 1 38 15 is_stmt 0 view .LVU15
 104 0012 0123     		movs	r3, #1
 105 0014 2370     		strb	r3, [r4]
  39:alohal/events/planner/planner.cpp ****     return 0;
 106              		.loc 1 39 5 is_stmt 1 view .LVU16
 107              		.loc 1 39 12 is_stmt 0 view .LVU17
 108 0016 0020     		movs	r0, #0
 109              	.LVL5:
 110              	.L3:
  40:alohal/events/planner/planner.cpp **** }
 111              		.loc 1 40 1 view .LVU18
 112              		@ sp needed
 113              	.LVL6:
 114              		.loc 1 40 1 view .LVU19
 115 0018 10BD     		pop	{r4, pc}
 116              	.LVL7:
 117              	.L5:
  36:alohal/events/planner/planner.cpp ****     }
 118              		.loc 1 36 16 view .LVU20
 119 001a 1120     		movs	r0, #17
 120              	.LVL8:
  36:alohal/events/planner/planner.cpp ****     }
 121              		.loc 1 36 16 view .LVU21
 122 001c FCE7     		b	.L3
 123              		.cfi_endproc
 124              	.LFE3868:
 126              		.section	.text._ZN7Planner10UnregisterEv,"ax",%progbits
 127              		.align	1
 128              		.global	_ZN7Planner10UnregisterEv
 129              		.syntax unified
 130              		.code	16
 131              		.thumb_func
 132              		.fpu softvfp
 134              	_ZN7Planner10UnregisterEv:
 135              	.LVL9:
 136              	.LFB3869:
ARM GAS  /tmp/ccSnm6QV.s 			page 4


  41:alohal/events/planner/planner.cpp **** 
  42:alohal/events/planner/planner.cpp **** int Planner::Unregister(){
 137              		.loc 1 42 26 is_stmt 1 view -0
 138              		.cfi_startproc
 139              		@ args = 0, pretend = 0, frame = 0
 140              		@ frame_needed = 0, uses_anonymous_args = 0
 141              		.loc 1 42 26 is_stmt 0 view .LVU23
 142 0000 10B5     		push	{r4, lr}
 143              	.LCFI1:
 144              		.cfi_def_cfa_offset 8
 145              		.cfi_offset 4, -8
 146              		.cfi_offset 14, -4
 147 0002 0400     		movs	r4, r0
  43:alohal/events/planner/planner.cpp ****     int ret = device()->Unregister_planner(this);
 148              		.loc 1 43 5 is_stmt 1 view .LVU24
 149              		.loc 1 43 43 is_stmt 0 view .LVU25
 150 0004 FFF7FEFF 		bl	_Z6devicev
 151              	.LVL10:
 152              		.loc 1 43 43 view .LVU26
 153 0008 2100     		movs	r1, r4
 154 000a FFF7FEFF 		bl	_ZN6Device18Unregister_plannerEP7Planner
 155              	.LVL11:
  44:alohal/events/planner/planner.cpp ****     if(ret == -1){
 156              		.loc 1 44 5 is_stmt 1 view .LVU27
 157 000e 431C     		adds	r3, r0, #1
 158 0010 03D0     		beq	.L8
  45:alohal/events/planner/planner.cpp ****         // Planner with this name probably not exists
  46:alohal/events/planner/planner.cpp ****         return EFAULT;
  47:alohal/events/planner/planner.cpp ****     }
  48:alohal/events/planner/planner.cpp ****     registred = false;
 159              		.loc 1 48 5 view .LVU28
 160              		.loc 1 48 15 is_stmt 0 view .LVU29
 161 0012 0023     		movs	r3, #0
 162 0014 2370     		strb	r3, [r4]
  49:alohal/events/planner/planner.cpp ****     return 0;
 163              		.loc 1 49 5 is_stmt 1 view .LVU30
 164              		.loc 1 49 12 is_stmt 0 view .LVU31
 165 0016 0020     		movs	r0, #0
 166              	.LVL12:
 167              	.L6:
  50:alohal/events/planner/planner.cpp **** }
 168              		.loc 1 50 1 view .LVU32
 169              		@ sp needed
 170              	.LVL13:
 171              		.loc 1 50 1 view .LVU33
 172 0018 10BD     		pop	{r4, pc}
 173              	.LVL14:
 174              	.L8:
  46:alohal/events/planner/planner.cpp ****     }
 175              		.loc 1 46 16 view .LVU34
 176 001a 0E20     		movs	r0, #14
 177              	.LVL15:
  46:alohal/events/planner/planner.cpp ****     }
 178              		.loc 1 46 16 view .LVU35
 179 001c FCE7     		b	.L6
 180              		.cfi_endproc
 181              	.LFE3869:
ARM GAS  /tmp/ccSnm6QV.s 			page 5


 183              		.section	.text._ZN7Planner4DoneEv,"ax",%progbits
 184              		.align	1
 185              		.global	_ZN7Planner4DoneEv
 186              		.syntax unified
 187              		.code	16
 188              		.thumb_func
 189              		.fpu softvfp
 191              	_ZN7Planner4DoneEv:
 192              	.LVL16:
 193              	.LFB3867:
  27:alohal/events/planner/planner.cpp ****     Stop();
 194              		.loc 1 27 21 is_stmt 1 view -0
 195              		.cfi_startproc
 196              		@ args = 0, pretend = 0, frame = 0
 197              		@ frame_needed = 0, uses_anonymous_args = 0
  27:alohal/events/planner/planner.cpp ****     Stop();
 198              		.loc 1 27 21 is_stmt 0 view .LVU37
 199 0000 10B5     		push	{r4, lr}
 200              	.LCFI2:
 201              		.cfi_def_cfa_offset 8
 202              		.cfi_offset 4, -8
 203              		.cfi_offset 14, -4
 204 0002 0400     		movs	r4, r0
  28:alohal/events/planner/planner.cpp ****     Unregister();
 205              		.loc 1 28 5 is_stmt 1 view .LVU38
  28:alohal/events/planner/planner.cpp ****     Unregister();
 206              		.loc 1 28 9 is_stmt 0 view .LVU39
 207 0004 FFF7FEFF 		bl	_ZN7Planner4StopEv
 208              	.LVL17:
  29:alohal/events/planner/planner.cpp **** }
 209              		.loc 1 29 5 is_stmt 1 view .LVU40
  29:alohal/events/planner/planner.cpp **** }
 210              		.loc 1 29 15 is_stmt 0 view .LVU41
 211 0008 2000     		movs	r0, r4
 212 000a FFF7FEFF 		bl	_ZN7Planner10UnregisterEv
 213              	.LVL18:
  30:alohal/events/planner/planner.cpp **** 
 214              		.loc 1 30 1 view .LVU42
 215              		@ sp needed
 216              	.LVL19:
  30:alohal/events/planner/planner.cpp **** 
 217              		.loc 1 30 1 view .LVU43
 218 000e 10BD     		pop	{r4, pc}
 219              		.cfi_endproc
 220              	.LFE3867:
 222              		.section	.rodata._ZNSt7__cxx1112basic_stringIcSt11char_traitsIcESaIcEE12_M_constructIPcEEvT_S7_St2
 223              		.align	2
 224              	.LC0:
 225 0000 62617369 		.ascii	"basic_string::_M_construct null not valid\000"
 225      635F7374 
 225      72696E67 
 225      3A3A5F4D 
 225      5F636F6E 
 226              		.section	.text._ZNSt7__cxx1112basic_stringIcSt11char_traitsIcESaIcEE12_M_constructIPcEEvT_S7_St20f
 227              		.align	1
 228              		.weak	_ZNSt7__cxx1112basic_stringIcSt11char_traitsIcESaIcEE12_M_constructIPcEEvT_S7_St20forward_it
 229              		.syntax unified
ARM GAS  /tmp/ccSnm6QV.s 			page 6


 230              		.code	16
 231              		.thumb_func
 232              		.fpu softvfp
 234              	_ZNSt7__cxx1112basic_stringIcSt11char_traitsIcESaIcEE12_M_constructIPcEEvT_S7_St20forward_iterator_
 235              	.LVL20:
 236              	.LFB4490:
 237              		.file 2 "/opt/gcc-arm-none-eabi-9-2020-q2/arm-none-eabi/include/c++/9.3.1/bits/basic_string.tcc"
   1:/opt/gcc-arm-none-eabi-9-2020-q2/arm-none-eabi/include/c++/9.3.1/bits/basic_string.tcc **** // Components for manipulating sequences of characters -*- C++ -*-
   2:/opt/gcc-arm-none-eabi-9-2020-q2/arm-none-eabi/include/c++/9.3.1/bits/basic_string.tcc **** 
   3:/opt/gcc-arm-none-eabi-9-2020-q2/arm-none-eabi/include/c++/9.3.1/bits/basic_string.tcc **** // Copyright (C) 1997-2019 Free Software Foundation, Inc.
   4:/opt/gcc-arm-none-eabi-9-2020-q2/arm-none-eabi/include/c++/9.3.1/bits/basic_string.tcc **** //
   5:/opt/gcc-arm-none-eabi-9-2020-q2/arm-none-eabi/include/c++/9.3.1/bits/basic_string.tcc **** // This file is part of the GNU ISO C++ Library.  This library is free
   6:/opt/gcc-arm-none-eabi-9-2020-q2/arm-none-eabi/include/c++/9.3.1/bits/basic_string.tcc **** // software; you can redistribute it and/or modify it under the
   7:/opt/gcc-arm-none-eabi-9-2020-q2/arm-none-eabi/include/c++/9.3.1/bits/basic_string.tcc **** // terms of the GNU General Public License as published by the
   8:/opt/gcc-arm-none-eabi-9-2020-q2/arm-none-eabi/include/c++/9.3.1/bits/basic_string.tcc **** // Free Software Foundation; either version 3, or (at your option)
   9:/opt/gcc-arm-none-eabi-9-2020-q2/arm-none-eabi/include/c++/9.3.1/bits/basic_string.tcc **** // any later version.
  10:/opt/gcc-arm-none-eabi-9-2020-q2/arm-none-eabi/include/c++/9.3.1/bits/basic_string.tcc **** 
  11:/opt/gcc-arm-none-eabi-9-2020-q2/arm-none-eabi/include/c++/9.3.1/bits/basic_string.tcc **** // This library is distributed in the hope that it will be useful,
  12:/opt/gcc-arm-none-eabi-9-2020-q2/arm-none-eabi/include/c++/9.3.1/bits/basic_string.tcc **** // but WITHOUT ANY WARRANTY; without even the implied warranty of
  13:/opt/gcc-arm-none-eabi-9-2020-q2/arm-none-eabi/include/c++/9.3.1/bits/basic_string.tcc **** // MERCHANTABILITY or FITNESS FOR A PARTICULAR PURPOSE.  See the
  14:/opt/gcc-arm-none-eabi-9-2020-q2/arm-none-eabi/include/c++/9.3.1/bits/basic_string.tcc **** // GNU General Public License for more details.
  15:/opt/gcc-arm-none-eabi-9-2020-q2/arm-none-eabi/include/c++/9.3.1/bits/basic_string.tcc **** 
  16:/opt/gcc-arm-none-eabi-9-2020-q2/arm-none-eabi/include/c++/9.3.1/bits/basic_string.tcc **** // Under Section 7 of GPL version 3, you are granted additional
  17:/opt/gcc-arm-none-eabi-9-2020-q2/arm-none-eabi/include/c++/9.3.1/bits/basic_string.tcc **** // permissions described in the GCC Runtime Library Exception, version
  18:/opt/gcc-arm-none-eabi-9-2020-q2/arm-none-eabi/include/c++/9.3.1/bits/basic_string.tcc **** // 3.1, as published by the Free Software Foundation.
  19:/opt/gcc-arm-none-eabi-9-2020-q2/arm-none-eabi/include/c++/9.3.1/bits/basic_string.tcc **** 
  20:/opt/gcc-arm-none-eabi-9-2020-q2/arm-none-eabi/include/c++/9.3.1/bits/basic_string.tcc **** // You should have received a copy of the GNU General Public License and
  21:/opt/gcc-arm-none-eabi-9-2020-q2/arm-none-eabi/include/c++/9.3.1/bits/basic_string.tcc **** // a copy of the GCC Runtime Library Exception along with this program;
  22:/opt/gcc-arm-none-eabi-9-2020-q2/arm-none-eabi/include/c++/9.3.1/bits/basic_string.tcc **** // see the files COPYING3 and COPYING.RUNTIME respectively.  If not, see
  23:/opt/gcc-arm-none-eabi-9-2020-q2/arm-none-eabi/include/c++/9.3.1/bits/basic_string.tcc **** // <http://www.gnu.org/licenses/>.
  24:/opt/gcc-arm-none-eabi-9-2020-q2/arm-none-eabi/include/c++/9.3.1/bits/basic_string.tcc **** 
  25:/opt/gcc-arm-none-eabi-9-2020-q2/arm-none-eabi/include/c++/9.3.1/bits/basic_string.tcc **** /** @file bits/basic_string.tcc
  26:/opt/gcc-arm-none-eabi-9-2020-q2/arm-none-eabi/include/c++/9.3.1/bits/basic_string.tcc ****  *  This is an internal header file, included by other library headers.
  27:/opt/gcc-arm-none-eabi-9-2020-q2/arm-none-eabi/include/c++/9.3.1/bits/basic_string.tcc ****  *  Do not attempt to use it directly. @headername{string}
  28:/opt/gcc-arm-none-eabi-9-2020-q2/arm-none-eabi/include/c++/9.3.1/bits/basic_string.tcc ****  */
  29:/opt/gcc-arm-none-eabi-9-2020-q2/arm-none-eabi/include/c++/9.3.1/bits/basic_string.tcc **** 
  30:/opt/gcc-arm-none-eabi-9-2020-q2/arm-none-eabi/include/c++/9.3.1/bits/basic_string.tcc **** //
  31:/opt/gcc-arm-none-eabi-9-2020-q2/arm-none-eabi/include/c++/9.3.1/bits/basic_string.tcc **** // ISO C++ 14882: 21  Strings library
  32:/opt/gcc-arm-none-eabi-9-2020-q2/arm-none-eabi/include/c++/9.3.1/bits/basic_string.tcc **** //
  33:/opt/gcc-arm-none-eabi-9-2020-q2/arm-none-eabi/include/c++/9.3.1/bits/basic_string.tcc **** 
  34:/opt/gcc-arm-none-eabi-9-2020-q2/arm-none-eabi/include/c++/9.3.1/bits/basic_string.tcc **** // Written by Jason Merrill based upon the specification by Takanori Adachi
  35:/opt/gcc-arm-none-eabi-9-2020-q2/arm-none-eabi/include/c++/9.3.1/bits/basic_string.tcc **** // in ANSI X3J16/94-0013R2.  Rewritten by Nathan Myers to ISO-14882.
  36:/opt/gcc-arm-none-eabi-9-2020-q2/arm-none-eabi/include/c++/9.3.1/bits/basic_string.tcc **** // Non-reference-counted implementation written by Paolo Carlini and
  37:/opt/gcc-arm-none-eabi-9-2020-q2/arm-none-eabi/include/c++/9.3.1/bits/basic_string.tcc **** // updated by Jonathan Wakely for ISO-14882-2011.
  38:/opt/gcc-arm-none-eabi-9-2020-q2/arm-none-eabi/include/c++/9.3.1/bits/basic_string.tcc **** 
  39:/opt/gcc-arm-none-eabi-9-2020-q2/arm-none-eabi/include/c++/9.3.1/bits/basic_string.tcc **** #ifndef _BASIC_STRING_TCC
  40:/opt/gcc-arm-none-eabi-9-2020-q2/arm-none-eabi/include/c++/9.3.1/bits/basic_string.tcc **** #define _BASIC_STRING_TCC 1
  41:/opt/gcc-arm-none-eabi-9-2020-q2/arm-none-eabi/include/c++/9.3.1/bits/basic_string.tcc **** 
  42:/opt/gcc-arm-none-eabi-9-2020-q2/arm-none-eabi/include/c++/9.3.1/bits/basic_string.tcc **** #pragma GCC system_header
  43:/opt/gcc-arm-none-eabi-9-2020-q2/arm-none-eabi/include/c++/9.3.1/bits/basic_string.tcc **** 
  44:/opt/gcc-arm-none-eabi-9-2020-q2/arm-none-eabi/include/c++/9.3.1/bits/basic_string.tcc **** #include <bits/cxxabi_forced.h>
  45:/opt/gcc-arm-none-eabi-9-2020-q2/arm-none-eabi/include/c++/9.3.1/bits/basic_string.tcc **** 
  46:/opt/gcc-arm-none-eabi-9-2020-q2/arm-none-eabi/include/c++/9.3.1/bits/basic_string.tcc **** namespace std _GLIBCXX_VISIBILITY(default)
  47:/opt/gcc-arm-none-eabi-9-2020-q2/arm-none-eabi/include/c++/9.3.1/bits/basic_string.tcc **** {
  48:/opt/gcc-arm-none-eabi-9-2020-q2/arm-none-eabi/include/c++/9.3.1/bits/basic_string.tcc **** _GLIBCXX_BEGIN_NAMESPACE_VERSION
  49:/opt/gcc-arm-none-eabi-9-2020-q2/arm-none-eabi/include/c++/9.3.1/bits/basic_string.tcc **** 
  50:/opt/gcc-arm-none-eabi-9-2020-q2/arm-none-eabi/include/c++/9.3.1/bits/basic_string.tcc **** #if _GLIBCXX_USE_CXX11_ABI
ARM GAS  /tmp/ccSnm6QV.s 			page 7


  51:/opt/gcc-arm-none-eabi-9-2020-q2/arm-none-eabi/include/c++/9.3.1/bits/basic_string.tcc **** 
  52:/opt/gcc-arm-none-eabi-9-2020-q2/arm-none-eabi/include/c++/9.3.1/bits/basic_string.tcc ****   template<typename _CharT, typename _Traits, typename _Alloc>
  53:/opt/gcc-arm-none-eabi-9-2020-q2/arm-none-eabi/include/c++/9.3.1/bits/basic_string.tcc ****     const typename basic_string<_CharT, _Traits, _Alloc>::size_type
  54:/opt/gcc-arm-none-eabi-9-2020-q2/arm-none-eabi/include/c++/9.3.1/bits/basic_string.tcc ****     basic_string<_CharT, _Traits, _Alloc>::npos;
  55:/opt/gcc-arm-none-eabi-9-2020-q2/arm-none-eabi/include/c++/9.3.1/bits/basic_string.tcc **** 
  56:/opt/gcc-arm-none-eabi-9-2020-q2/arm-none-eabi/include/c++/9.3.1/bits/basic_string.tcc ****   template<typename _CharT, typename _Traits, typename _Alloc>
  57:/opt/gcc-arm-none-eabi-9-2020-q2/arm-none-eabi/include/c++/9.3.1/bits/basic_string.tcc ****     void
  58:/opt/gcc-arm-none-eabi-9-2020-q2/arm-none-eabi/include/c++/9.3.1/bits/basic_string.tcc ****     basic_string<_CharT, _Traits, _Alloc>::
  59:/opt/gcc-arm-none-eabi-9-2020-q2/arm-none-eabi/include/c++/9.3.1/bits/basic_string.tcc ****     swap(basic_string& __s) _GLIBCXX_NOEXCEPT
  60:/opt/gcc-arm-none-eabi-9-2020-q2/arm-none-eabi/include/c++/9.3.1/bits/basic_string.tcc ****     {
  61:/opt/gcc-arm-none-eabi-9-2020-q2/arm-none-eabi/include/c++/9.3.1/bits/basic_string.tcc ****       if (this == &__s)
  62:/opt/gcc-arm-none-eabi-9-2020-q2/arm-none-eabi/include/c++/9.3.1/bits/basic_string.tcc **** 	return;
  63:/opt/gcc-arm-none-eabi-9-2020-q2/arm-none-eabi/include/c++/9.3.1/bits/basic_string.tcc **** 
  64:/opt/gcc-arm-none-eabi-9-2020-q2/arm-none-eabi/include/c++/9.3.1/bits/basic_string.tcc ****       _Alloc_traits::_S_on_swap(_M_get_allocator(), __s._M_get_allocator());
  65:/opt/gcc-arm-none-eabi-9-2020-q2/arm-none-eabi/include/c++/9.3.1/bits/basic_string.tcc **** 
  66:/opt/gcc-arm-none-eabi-9-2020-q2/arm-none-eabi/include/c++/9.3.1/bits/basic_string.tcc ****       if (_M_is_local())
  67:/opt/gcc-arm-none-eabi-9-2020-q2/arm-none-eabi/include/c++/9.3.1/bits/basic_string.tcc **** 	if (__s._M_is_local())
  68:/opt/gcc-arm-none-eabi-9-2020-q2/arm-none-eabi/include/c++/9.3.1/bits/basic_string.tcc **** 	  {
  69:/opt/gcc-arm-none-eabi-9-2020-q2/arm-none-eabi/include/c++/9.3.1/bits/basic_string.tcc **** 	    if (length() && __s.length())
  70:/opt/gcc-arm-none-eabi-9-2020-q2/arm-none-eabi/include/c++/9.3.1/bits/basic_string.tcc **** 	      {
  71:/opt/gcc-arm-none-eabi-9-2020-q2/arm-none-eabi/include/c++/9.3.1/bits/basic_string.tcc **** 		_CharT __tmp_data[_S_local_capacity + 1];
  72:/opt/gcc-arm-none-eabi-9-2020-q2/arm-none-eabi/include/c++/9.3.1/bits/basic_string.tcc **** 		traits_type::copy(__tmp_data, __s._M_local_buf,
  73:/opt/gcc-arm-none-eabi-9-2020-q2/arm-none-eabi/include/c++/9.3.1/bits/basic_string.tcc **** 				  _S_local_capacity + 1);
  74:/opt/gcc-arm-none-eabi-9-2020-q2/arm-none-eabi/include/c++/9.3.1/bits/basic_string.tcc **** 		traits_type::copy(__s._M_local_buf, _M_local_buf,
  75:/opt/gcc-arm-none-eabi-9-2020-q2/arm-none-eabi/include/c++/9.3.1/bits/basic_string.tcc **** 				  _S_local_capacity + 1);
  76:/opt/gcc-arm-none-eabi-9-2020-q2/arm-none-eabi/include/c++/9.3.1/bits/basic_string.tcc **** 		traits_type::copy(_M_local_buf, __tmp_data,
  77:/opt/gcc-arm-none-eabi-9-2020-q2/arm-none-eabi/include/c++/9.3.1/bits/basic_string.tcc **** 				  _S_local_capacity + 1);
  78:/opt/gcc-arm-none-eabi-9-2020-q2/arm-none-eabi/include/c++/9.3.1/bits/basic_string.tcc **** 	      }
  79:/opt/gcc-arm-none-eabi-9-2020-q2/arm-none-eabi/include/c++/9.3.1/bits/basic_string.tcc **** 	    else if (__s.length())
  80:/opt/gcc-arm-none-eabi-9-2020-q2/arm-none-eabi/include/c++/9.3.1/bits/basic_string.tcc **** 	      {
  81:/opt/gcc-arm-none-eabi-9-2020-q2/arm-none-eabi/include/c++/9.3.1/bits/basic_string.tcc **** 		traits_type::copy(_M_local_buf, __s._M_local_buf,
  82:/opt/gcc-arm-none-eabi-9-2020-q2/arm-none-eabi/include/c++/9.3.1/bits/basic_string.tcc **** 				  _S_local_capacity + 1);
  83:/opt/gcc-arm-none-eabi-9-2020-q2/arm-none-eabi/include/c++/9.3.1/bits/basic_string.tcc **** 		_M_length(__s.length());
  84:/opt/gcc-arm-none-eabi-9-2020-q2/arm-none-eabi/include/c++/9.3.1/bits/basic_string.tcc **** 		__s._M_set_length(0);
  85:/opt/gcc-arm-none-eabi-9-2020-q2/arm-none-eabi/include/c++/9.3.1/bits/basic_string.tcc **** 		return;
  86:/opt/gcc-arm-none-eabi-9-2020-q2/arm-none-eabi/include/c++/9.3.1/bits/basic_string.tcc **** 	      }
  87:/opt/gcc-arm-none-eabi-9-2020-q2/arm-none-eabi/include/c++/9.3.1/bits/basic_string.tcc **** 	    else if (length())
  88:/opt/gcc-arm-none-eabi-9-2020-q2/arm-none-eabi/include/c++/9.3.1/bits/basic_string.tcc **** 	      {
  89:/opt/gcc-arm-none-eabi-9-2020-q2/arm-none-eabi/include/c++/9.3.1/bits/basic_string.tcc **** 		traits_type::copy(__s._M_local_buf, _M_local_buf,
  90:/opt/gcc-arm-none-eabi-9-2020-q2/arm-none-eabi/include/c++/9.3.1/bits/basic_string.tcc **** 				  _S_local_capacity + 1);
  91:/opt/gcc-arm-none-eabi-9-2020-q2/arm-none-eabi/include/c++/9.3.1/bits/basic_string.tcc **** 		__s._M_length(length());
  92:/opt/gcc-arm-none-eabi-9-2020-q2/arm-none-eabi/include/c++/9.3.1/bits/basic_string.tcc **** 		_M_set_length(0);
  93:/opt/gcc-arm-none-eabi-9-2020-q2/arm-none-eabi/include/c++/9.3.1/bits/basic_string.tcc **** 		return;
  94:/opt/gcc-arm-none-eabi-9-2020-q2/arm-none-eabi/include/c++/9.3.1/bits/basic_string.tcc **** 	      }
  95:/opt/gcc-arm-none-eabi-9-2020-q2/arm-none-eabi/include/c++/9.3.1/bits/basic_string.tcc **** 	  }
  96:/opt/gcc-arm-none-eabi-9-2020-q2/arm-none-eabi/include/c++/9.3.1/bits/basic_string.tcc **** 	else
  97:/opt/gcc-arm-none-eabi-9-2020-q2/arm-none-eabi/include/c++/9.3.1/bits/basic_string.tcc **** 	  {
  98:/opt/gcc-arm-none-eabi-9-2020-q2/arm-none-eabi/include/c++/9.3.1/bits/basic_string.tcc **** 	    const size_type __tmp_capacity = __s._M_allocated_capacity;
  99:/opt/gcc-arm-none-eabi-9-2020-q2/arm-none-eabi/include/c++/9.3.1/bits/basic_string.tcc **** 	    traits_type::copy(__s._M_local_buf, _M_local_buf,
 100:/opt/gcc-arm-none-eabi-9-2020-q2/arm-none-eabi/include/c++/9.3.1/bits/basic_string.tcc **** 			      _S_local_capacity + 1);
 101:/opt/gcc-arm-none-eabi-9-2020-q2/arm-none-eabi/include/c++/9.3.1/bits/basic_string.tcc **** 	    _M_data(__s._M_data());
 102:/opt/gcc-arm-none-eabi-9-2020-q2/arm-none-eabi/include/c++/9.3.1/bits/basic_string.tcc **** 	    __s._M_data(__s._M_local_buf);
 103:/opt/gcc-arm-none-eabi-9-2020-q2/arm-none-eabi/include/c++/9.3.1/bits/basic_string.tcc **** 	    _M_capacity(__tmp_capacity);
 104:/opt/gcc-arm-none-eabi-9-2020-q2/arm-none-eabi/include/c++/9.3.1/bits/basic_string.tcc **** 	  }
 105:/opt/gcc-arm-none-eabi-9-2020-q2/arm-none-eabi/include/c++/9.3.1/bits/basic_string.tcc ****       else
 106:/opt/gcc-arm-none-eabi-9-2020-q2/arm-none-eabi/include/c++/9.3.1/bits/basic_string.tcc **** 	{
 107:/opt/gcc-arm-none-eabi-9-2020-q2/arm-none-eabi/include/c++/9.3.1/bits/basic_string.tcc **** 	  const size_type __tmp_capacity = _M_allocated_capacity;
ARM GAS  /tmp/ccSnm6QV.s 			page 8


 108:/opt/gcc-arm-none-eabi-9-2020-q2/arm-none-eabi/include/c++/9.3.1/bits/basic_string.tcc **** 	  if (__s._M_is_local())
 109:/opt/gcc-arm-none-eabi-9-2020-q2/arm-none-eabi/include/c++/9.3.1/bits/basic_string.tcc **** 	    {
 110:/opt/gcc-arm-none-eabi-9-2020-q2/arm-none-eabi/include/c++/9.3.1/bits/basic_string.tcc **** 	      traits_type::copy(_M_local_buf, __s._M_local_buf,
 111:/opt/gcc-arm-none-eabi-9-2020-q2/arm-none-eabi/include/c++/9.3.1/bits/basic_string.tcc **** 				_S_local_capacity + 1);
 112:/opt/gcc-arm-none-eabi-9-2020-q2/arm-none-eabi/include/c++/9.3.1/bits/basic_string.tcc **** 	      __s._M_data(_M_data());
 113:/opt/gcc-arm-none-eabi-9-2020-q2/arm-none-eabi/include/c++/9.3.1/bits/basic_string.tcc **** 	      _M_data(_M_local_buf);
 114:/opt/gcc-arm-none-eabi-9-2020-q2/arm-none-eabi/include/c++/9.3.1/bits/basic_string.tcc **** 	    }
 115:/opt/gcc-arm-none-eabi-9-2020-q2/arm-none-eabi/include/c++/9.3.1/bits/basic_string.tcc **** 	  else
 116:/opt/gcc-arm-none-eabi-9-2020-q2/arm-none-eabi/include/c++/9.3.1/bits/basic_string.tcc **** 	    {
 117:/opt/gcc-arm-none-eabi-9-2020-q2/arm-none-eabi/include/c++/9.3.1/bits/basic_string.tcc **** 	      pointer __tmp_ptr = _M_data();
 118:/opt/gcc-arm-none-eabi-9-2020-q2/arm-none-eabi/include/c++/9.3.1/bits/basic_string.tcc **** 	      _M_data(__s._M_data());
 119:/opt/gcc-arm-none-eabi-9-2020-q2/arm-none-eabi/include/c++/9.3.1/bits/basic_string.tcc **** 	      __s._M_data(__tmp_ptr);
 120:/opt/gcc-arm-none-eabi-9-2020-q2/arm-none-eabi/include/c++/9.3.1/bits/basic_string.tcc **** 	      _M_capacity(__s._M_allocated_capacity);
 121:/opt/gcc-arm-none-eabi-9-2020-q2/arm-none-eabi/include/c++/9.3.1/bits/basic_string.tcc **** 	    }
 122:/opt/gcc-arm-none-eabi-9-2020-q2/arm-none-eabi/include/c++/9.3.1/bits/basic_string.tcc **** 	  __s._M_capacity(__tmp_capacity);
 123:/opt/gcc-arm-none-eabi-9-2020-q2/arm-none-eabi/include/c++/9.3.1/bits/basic_string.tcc **** 	}
 124:/opt/gcc-arm-none-eabi-9-2020-q2/arm-none-eabi/include/c++/9.3.1/bits/basic_string.tcc **** 
 125:/opt/gcc-arm-none-eabi-9-2020-q2/arm-none-eabi/include/c++/9.3.1/bits/basic_string.tcc ****       const size_type __tmp_length = length();
 126:/opt/gcc-arm-none-eabi-9-2020-q2/arm-none-eabi/include/c++/9.3.1/bits/basic_string.tcc ****       _M_length(__s.length());
 127:/opt/gcc-arm-none-eabi-9-2020-q2/arm-none-eabi/include/c++/9.3.1/bits/basic_string.tcc ****       __s._M_length(__tmp_length);
 128:/opt/gcc-arm-none-eabi-9-2020-q2/arm-none-eabi/include/c++/9.3.1/bits/basic_string.tcc ****     }
 129:/opt/gcc-arm-none-eabi-9-2020-q2/arm-none-eabi/include/c++/9.3.1/bits/basic_string.tcc **** 
 130:/opt/gcc-arm-none-eabi-9-2020-q2/arm-none-eabi/include/c++/9.3.1/bits/basic_string.tcc ****   template<typename _CharT, typename _Traits, typename _Alloc>
 131:/opt/gcc-arm-none-eabi-9-2020-q2/arm-none-eabi/include/c++/9.3.1/bits/basic_string.tcc ****     typename basic_string<_CharT, _Traits, _Alloc>::pointer
 132:/opt/gcc-arm-none-eabi-9-2020-q2/arm-none-eabi/include/c++/9.3.1/bits/basic_string.tcc ****     basic_string<_CharT, _Traits, _Alloc>::
 133:/opt/gcc-arm-none-eabi-9-2020-q2/arm-none-eabi/include/c++/9.3.1/bits/basic_string.tcc ****     _M_create(size_type& __capacity, size_type __old_capacity)
 134:/opt/gcc-arm-none-eabi-9-2020-q2/arm-none-eabi/include/c++/9.3.1/bits/basic_string.tcc ****     {
 135:/opt/gcc-arm-none-eabi-9-2020-q2/arm-none-eabi/include/c++/9.3.1/bits/basic_string.tcc ****       // _GLIBCXX_RESOLVE_LIB_DEFECTS
 136:/opt/gcc-arm-none-eabi-9-2020-q2/arm-none-eabi/include/c++/9.3.1/bits/basic_string.tcc ****       // 83.  String::npos vs. string::max_size()
 137:/opt/gcc-arm-none-eabi-9-2020-q2/arm-none-eabi/include/c++/9.3.1/bits/basic_string.tcc ****       if (__capacity > max_size())
 138:/opt/gcc-arm-none-eabi-9-2020-q2/arm-none-eabi/include/c++/9.3.1/bits/basic_string.tcc **** 	std::__throw_length_error(__N("basic_string::_M_create"));
 139:/opt/gcc-arm-none-eabi-9-2020-q2/arm-none-eabi/include/c++/9.3.1/bits/basic_string.tcc **** 
 140:/opt/gcc-arm-none-eabi-9-2020-q2/arm-none-eabi/include/c++/9.3.1/bits/basic_string.tcc ****       // The below implements an exponential growth policy, necessary to
 141:/opt/gcc-arm-none-eabi-9-2020-q2/arm-none-eabi/include/c++/9.3.1/bits/basic_string.tcc ****       // meet amortized linear time requirements of the library: see
 142:/opt/gcc-arm-none-eabi-9-2020-q2/arm-none-eabi/include/c++/9.3.1/bits/basic_string.tcc ****       // http://gcc.gnu.org/ml/libstdc++/2001-07/msg00085.html.
 143:/opt/gcc-arm-none-eabi-9-2020-q2/arm-none-eabi/include/c++/9.3.1/bits/basic_string.tcc ****       if (__capacity > __old_capacity && __capacity < 2 * __old_capacity)
 144:/opt/gcc-arm-none-eabi-9-2020-q2/arm-none-eabi/include/c++/9.3.1/bits/basic_string.tcc **** 	{
 145:/opt/gcc-arm-none-eabi-9-2020-q2/arm-none-eabi/include/c++/9.3.1/bits/basic_string.tcc **** 	  __capacity = 2 * __old_capacity;
 146:/opt/gcc-arm-none-eabi-9-2020-q2/arm-none-eabi/include/c++/9.3.1/bits/basic_string.tcc **** 	  // Never allocate a string bigger than max_size.
 147:/opt/gcc-arm-none-eabi-9-2020-q2/arm-none-eabi/include/c++/9.3.1/bits/basic_string.tcc **** 	  if (__capacity > max_size())
 148:/opt/gcc-arm-none-eabi-9-2020-q2/arm-none-eabi/include/c++/9.3.1/bits/basic_string.tcc **** 	    __capacity = max_size();
 149:/opt/gcc-arm-none-eabi-9-2020-q2/arm-none-eabi/include/c++/9.3.1/bits/basic_string.tcc **** 	}
 150:/opt/gcc-arm-none-eabi-9-2020-q2/arm-none-eabi/include/c++/9.3.1/bits/basic_string.tcc **** 
 151:/opt/gcc-arm-none-eabi-9-2020-q2/arm-none-eabi/include/c++/9.3.1/bits/basic_string.tcc ****       // NB: Need an array of char_type[__capacity], plus a terminating
 152:/opt/gcc-arm-none-eabi-9-2020-q2/arm-none-eabi/include/c++/9.3.1/bits/basic_string.tcc ****       // null char_type() element.
 153:/opt/gcc-arm-none-eabi-9-2020-q2/arm-none-eabi/include/c++/9.3.1/bits/basic_string.tcc ****       return _Alloc_traits::allocate(_M_get_allocator(), __capacity + 1);
 154:/opt/gcc-arm-none-eabi-9-2020-q2/arm-none-eabi/include/c++/9.3.1/bits/basic_string.tcc ****     }
 155:/opt/gcc-arm-none-eabi-9-2020-q2/arm-none-eabi/include/c++/9.3.1/bits/basic_string.tcc **** 
 156:/opt/gcc-arm-none-eabi-9-2020-q2/arm-none-eabi/include/c++/9.3.1/bits/basic_string.tcc ****   // NB: This is the special case for Input Iterators, used in
 157:/opt/gcc-arm-none-eabi-9-2020-q2/arm-none-eabi/include/c++/9.3.1/bits/basic_string.tcc ****   // istreambuf_iterators, etc.
 158:/opt/gcc-arm-none-eabi-9-2020-q2/arm-none-eabi/include/c++/9.3.1/bits/basic_string.tcc ****   // Input Iterators have a cost structure very different from
 159:/opt/gcc-arm-none-eabi-9-2020-q2/arm-none-eabi/include/c++/9.3.1/bits/basic_string.tcc ****   // pointers, calling for a different coding style.
 160:/opt/gcc-arm-none-eabi-9-2020-q2/arm-none-eabi/include/c++/9.3.1/bits/basic_string.tcc ****   template<typename _CharT, typename _Traits, typename _Alloc>
 161:/opt/gcc-arm-none-eabi-9-2020-q2/arm-none-eabi/include/c++/9.3.1/bits/basic_string.tcc ****     template<typename _InIterator>
 162:/opt/gcc-arm-none-eabi-9-2020-q2/arm-none-eabi/include/c++/9.3.1/bits/basic_string.tcc ****       void
 163:/opt/gcc-arm-none-eabi-9-2020-q2/arm-none-eabi/include/c++/9.3.1/bits/basic_string.tcc ****       basic_string<_CharT, _Traits, _Alloc>::
 164:/opt/gcc-arm-none-eabi-9-2020-q2/arm-none-eabi/include/c++/9.3.1/bits/basic_string.tcc ****       _M_construct(_InIterator __beg, _InIterator __end,
ARM GAS  /tmp/ccSnm6QV.s 			page 9


 165:/opt/gcc-arm-none-eabi-9-2020-q2/arm-none-eabi/include/c++/9.3.1/bits/basic_string.tcc **** 		   std::input_iterator_tag)
 166:/opt/gcc-arm-none-eabi-9-2020-q2/arm-none-eabi/include/c++/9.3.1/bits/basic_string.tcc ****       {
 167:/opt/gcc-arm-none-eabi-9-2020-q2/arm-none-eabi/include/c++/9.3.1/bits/basic_string.tcc **** 	size_type __len = 0;
 168:/opt/gcc-arm-none-eabi-9-2020-q2/arm-none-eabi/include/c++/9.3.1/bits/basic_string.tcc **** 	size_type __capacity = size_type(_S_local_capacity);
 169:/opt/gcc-arm-none-eabi-9-2020-q2/arm-none-eabi/include/c++/9.3.1/bits/basic_string.tcc **** 
 170:/opt/gcc-arm-none-eabi-9-2020-q2/arm-none-eabi/include/c++/9.3.1/bits/basic_string.tcc **** 	while (__beg != __end && __len < __capacity)
 171:/opt/gcc-arm-none-eabi-9-2020-q2/arm-none-eabi/include/c++/9.3.1/bits/basic_string.tcc **** 	  {
 172:/opt/gcc-arm-none-eabi-9-2020-q2/arm-none-eabi/include/c++/9.3.1/bits/basic_string.tcc **** 	    _M_data()[__len++] = *__beg;
 173:/opt/gcc-arm-none-eabi-9-2020-q2/arm-none-eabi/include/c++/9.3.1/bits/basic_string.tcc **** 	    ++__beg;
 174:/opt/gcc-arm-none-eabi-9-2020-q2/arm-none-eabi/include/c++/9.3.1/bits/basic_string.tcc **** 	  }
 175:/opt/gcc-arm-none-eabi-9-2020-q2/arm-none-eabi/include/c++/9.3.1/bits/basic_string.tcc **** 
 176:/opt/gcc-arm-none-eabi-9-2020-q2/arm-none-eabi/include/c++/9.3.1/bits/basic_string.tcc **** 	__try
 177:/opt/gcc-arm-none-eabi-9-2020-q2/arm-none-eabi/include/c++/9.3.1/bits/basic_string.tcc **** 	  {
 178:/opt/gcc-arm-none-eabi-9-2020-q2/arm-none-eabi/include/c++/9.3.1/bits/basic_string.tcc **** 	    while (__beg != __end)
 179:/opt/gcc-arm-none-eabi-9-2020-q2/arm-none-eabi/include/c++/9.3.1/bits/basic_string.tcc **** 	      {
 180:/opt/gcc-arm-none-eabi-9-2020-q2/arm-none-eabi/include/c++/9.3.1/bits/basic_string.tcc **** 		if (__len == __capacity)
 181:/opt/gcc-arm-none-eabi-9-2020-q2/arm-none-eabi/include/c++/9.3.1/bits/basic_string.tcc **** 		  {
 182:/opt/gcc-arm-none-eabi-9-2020-q2/arm-none-eabi/include/c++/9.3.1/bits/basic_string.tcc **** 		    // Allocate more space.
 183:/opt/gcc-arm-none-eabi-9-2020-q2/arm-none-eabi/include/c++/9.3.1/bits/basic_string.tcc **** 		    __capacity = __len + 1;
 184:/opt/gcc-arm-none-eabi-9-2020-q2/arm-none-eabi/include/c++/9.3.1/bits/basic_string.tcc **** 		    pointer __another = _M_create(__capacity, __len);
 185:/opt/gcc-arm-none-eabi-9-2020-q2/arm-none-eabi/include/c++/9.3.1/bits/basic_string.tcc **** 		    this->_S_copy(__another, _M_data(), __len);
 186:/opt/gcc-arm-none-eabi-9-2020-q2/arm-none-eabi/include/c++/9.3.1/bits/basic_string.tcc **** 		    _M_dispose();
 187:/opt/gcc-arm-none-eabi-9-2020-q2/arm-none-eabi/include/c++/9.3.1/bits/basic_string.tcc **** 		    _M_data(__another);
 188:/opt/gcc-arm-none-eabi-9-2020-q2/arm-none-eabi/include/c++/9.3.1/bits/basic_string.tcc **** 		    _M_capacity(__capacity);
 189:/opt/gcc-arm-none-eabi-9-2020-q2/arm-none-eabi/include/c++/9.3.1/bits/basic_string.tcc **** 		  }
 190:/opt/gcc-arm-none-eabi-9-2020-q2/arm-none-eabi/include/c++/9.3.1/bits/basic_string.tcc **** 		_M_data()[__len++] = *__beg;
 191:/opt/gcc-arm-none-eabi-9-2020-q2/arm-none-eabi/include/c++/9.3.1/bits/basic_string.tcc **** 		++__beg;
 192:/opt/gcc-arm-none-eabi-9-2020-q2/arm-none-eabi/include/c++/9.3.1/bits/basic_string.tcc **** 	      }
 193:/opt/gcc-arm-none-eabi-9-2020-q2/arm-none-eabi/include/c++/9.3.1/bits/basic_string.tcc **** 	  }
 194:/opt/gcc-arm-none-eabi-9-2020-q2/arm-none-eabi/include/c++/9.3.1/bits/basic_string.tcc **** 	__catch(...)
 195:/opt/gcc-arm-none-eabi-9-2020-q2/arm-none-eabi/include/c++/9.3.1/bits/basic_string.tcc **** 	  {
 196:/opt/gcc-arm-none-eabi-9-2020-q2/arm-none-eabi/include/c++/9.3.1/bits/basic_string.tcc **** 	    _M_dispose();
 197:/opt/gcc-arm-none-eabi-9-2020-q2/arm-none-eabi/include/c++/9.3.1/bits/basic_string.tcc **** 	    __throw_exception_again;
 198:/opt/gcc-arm-none-eabi-9-2020-q2/arm-none-eabi/include/c++/9.3.1/bits/basic_string.tcc **** 	  }
 199:/opt/gcc-arm-none-eabi-9-2020-q2/arm-none-eabi/include/c++/9.3.1/bits/basic_string.tcc **** 
 200:/opt/gcc-arm-none-eabi-9-2020-q2/arm-none-eabi/include/c++/9.3.1/bits/basic_string.tcc **** 	_M_set_length(__len);
 201:/opt/gcc-arm-none-eabi-9-2020-q2/arm-none-eabi/include/c++/9.3.1/bits/basic_string.tcc ****       }
 202:/opt/gcc-arm-none-eabi-9-2020-q2/arm-none-eabi/include/c++/9.3.1/bits/basic_string.tcc **** 
 203:/opt/gcc-arm-none-eabi-9-2020-q2/arm-none-eabi/include/c++/9.3.1/bits/basic_string.tcc ****   template<typename _CharT, typename _Traits, typename _Alloc>
 204:/opt/gcc-arm-none-eabi-9-2020-q2/arm-none-eabi/include/c++/9.3.1/bits/basic_string.tcc ****     template<typename _InIterator>
 205:/opt/gcc-arm-none-eabi-9-2020-q2/arm-none-eabi/include/c++/9.3.1/bits/basic_string.tcc ****       void
 206:/opt/gcc-arm-none-eabi-9-2020-q2/arm-none-eabi/include/c++/9.3.1/bits/basic_string.tcc ****       basic_string<_CharT, _Traits, _Alloc>::
 238              		.loc 2 206 7 is_stmt 1 view -0
 239              		.cfi_startproc
 240              		@ args = 0, pretend = 0, frame = 8
 241              		@ frame_needed = 0, uses_anonymous_args = 0
 242              		.loc 2 206 7 is_stmt 0 view .LVU45
 243 0000 70B5     		push	{r4, r5, r6, lr}
 244              	.LCFI3:
 245              		.cfi_def_cfa_offset 16
 246              		.cfi_offset 4, -16
 247              		.cfi_offset 5, -12
 248              		.cfi_offset 6, -8
 249              		.cfi_offset 14, -4
 250 0002 82B0     		sub	sp, sp, #8
 251              	.LCFI4:
 252              		.cfi_def_cfa_offset 24
ARM GAS  /tmp/ccSnm6QV.s 			page 10


 253 0004 0500     		movs	r5, r0
 254 0006 0E1E     		subs	r6, r1, #0
 207:/opt/gcc-arm-none-eabi-9-2020-q2/arm-none-eabi/include/c++/9.3.1/bits/basic_string.tcc ****       _M_construct(_InIterator __beg, _InIterator __end,
 208:/opt/gcc-arm-none-eabi-9-2020-q2/arm-none-eabi/include/c++/9.3.1/bits/basic_string.tcc **** 		   std::forward_iterator_tag)
 209:/opt/gcc-arm-none-eabi-9-2020-q2/arm-none-eabi/include/c++/9.3.1/bits/basic_string.tcc ****       {
 210:/opt/gcc-arm-none-eabi-9-2020-q2/arm-none-eabi/include/c++/9.3.1/bits/basic_string.tcc **** 	// NB: Not required, but considered best practice.
 211:/opt/gcc-arm-none-eabi-9-2020-q2/arm-none-eabi/include/c++/9.3.1/bits/basic_string.tcc **** 	if (__gnu_cxx::__is_null_pointer(__beg) && __beg != __end)
 255              		.loc 2 211 42 view .LVU46
 256 0008 0DD0     		beq	.L15
 257              	.L11:
 258              	.LVL21:
 259              	.LBB1132:
 260              	.LBI1132:
 261              		.file 3 "/opt/gcc-arm-none-eabi-9-2020-q2/arm-none-eabi/include/c++/9.3.1/bits/stl_iterator_base_f
   1:/opt/gcc-arm-none-eabi-9-2020-q2/arm-none-eabi/include/c++/9.3.1/bits/stl_iterator_base_funcs.h **** // Functions used by iterators -*- C++ -*-
   2:/opt/gcc-arm-none-eabi-9-2020-q2/arm-none-eabi/include/c++/9.3.1/bits/stl_iterator_base_funcs.h **** 
   3:/opt/gcc-arm-none-eabi-9-2020-q2/arm-none-eabi/include/c++/9.3.1/bits/stl_iterator_base_funcs.h **** // Copyright (C) 2001-2019 Free Software Foundation, Inc.
   4:/opt/gcc-arm-none-eabi-9-2020-q2/arm-none-eabi/include/c++/9.3.1/bits/stl_iterator_base_funcs.h **** //
   5:/opt/gcc-arm-none-eabi-9-2020-q2/arm-none-eabi/include/c++/9.3.1/bits/stl_iterator_base_funcs.h **** // This file is part of the GNU ISO C++ Library.  This library is free
   6:/opt/gcc-arm-none-eabi-9-2020-q2/arm-none-eabi/include/c++/9.3.1/bits/stl_iterator_base_funcs.h **** // software; you can redistribute it and/or modify it under the
   7:/opt/gcc-arm-none-eabi-9-2020-q2/arm-none-eabi/include/c++/9.3.1/bits/stl_iterator_base_funcs.h **** // terms of the GNU General Public License as published by the
   8:/opt/gcc-arm-none-eabi-9-2020-q2/arm-none-eabi/include/c++/9.3.1/bits/stl_iterator_base_funcs.h **** // Free Software Foundation; either version 3, or (at your option)
   9:/opt/gcc-arm-none-eabi-9-2020-q2/arm-none-eabi/include/c++/9.3.1/bits/stl_iterator_base_funcs.h **** // any later version.
  10:/opt/gcc-arm-none-eabi-9-2020-q2/arm-none-eabi/include/c++/9.3.1/bits/stl_iterator_base_funcs.h **** 
  11:/opt/gcc-arm-none-eabi-9-2020-q2/arm-none-eabi/include/c++/9.3.1/bits/stl_iterator_base_funcs.h **** // This library is distributed in the hope that it will be useful,
  12:/opt/gcc-arm-none-eabi-9-2020-q2/arm-none-eabi/include/c++/9.3.1/bits/stl_iterator_base_funcs.h **** // but WITHOUT ANY WARRANTY; without even the implied warranty of
  13:/opt/gcc-arm-none-eabi-9-2020-q2/arm-none-eabi/include/c++/9.3.1/bits/stl_iterator_base_funcs.h **** // MERCHANTABILITY or FITNESS FOR A PARTICULAR PURPOSE.  See the
  14:/opt/gcc-arm-none-eabi-9-2020-q2/arm-none-eabi/include/c++/9.3.1/bits/stl_iterator_base_funcs.h **** // GNU General Public License for more details.
  15:/opt/gcc-arm-none-eabi-9-2020-q2/arm-none-eabi/include/c++/9.3.1/bits/stl_iterator_base_funcs.h **** 
  16:/opt/gcc-arm-none-eabi-9-2020-q2/arm-none-eabi/include/c++/9.3.1/bits/stl_iterator_base_funcs.h **** // Under Section 7 of GPL version 3, you are granted additional
  17:/opt/gcc-arm-none-eabi-9-2020-q2/arm-none-eabi/include/c++/9.3.1/bits/stl_iterator_base_funcs.h **** // permissions described in the GCC Runtime Library Exception, version
  18:/opt/gcc-arm-none-eabi-9-2020-q2/arm-none-eabi/include/c++/9.3.1/bits/stl_iterator_base_funcs.h **** // 3.1, as published by the Free Software Foundation.
  19:/opt/gcc-arm-none-eabi-9-2020-q2/arm-none-eabi/include/c++/9.3.1/bits/stl_iterator_base_funcs.h **** 
  20:/opt/gcc-arm-none-eabi-9-2020-q2/arm-none-eabi/include/c++/9.3.1/bits/stl_iterator_base_funcs.h **** // You should have received a copy of the GNU General Public License and
  21:/opt/gcc-arm-none-eabi-9-2020-q2/arm-none-eabi/include/c++/9.3.1/bits/stl_iterator_base_funcs.h **** // a copy of the GCC Runtime Library Exception along with this program;
  22:/opt/gcc-arm-none-eabi-9-2020-q2/arm-none-eabi/include/c++/9.3.1/bits/stl_iterator_base_funcs.h **** // see the files COPYING3 and COPYING.RUNTIME respectively.  If not, see
  23:/opt/gcc-arm-none-eabi-9-2020-q2/arm-none-eabi/include/c++/9.3.1/bits/stl_iterator_base_funcs.h **** // <http://www.gnu.org/licenses/>.
  24:/opt/gcc-arm-none-eabi-9-2020-q2/arm-none-eabi/include/c++/9.3.1/bits/stl_iterator_base_funcs.h **** 
  25:/opt/gcc-arm-none-eabi-9-2020-q2/arm-none-eabi/include/c++/9.3.1/bits/stl_iterator_base_funcs.h **** /*
  26:/opt/gcc-arm-none-eabi-9-2020-q2/arm-none-eabi/include/c++/9.3.1/bits/stl_iterator_base_funcs.h ****  *
  27:/opt/gcc-arm-none-eabi-9-2020-q2/arm-none-eabi/include/c++/9.3.1/bits/stl_iterator_base_funcs.h ****  * Copyright (c) 1994
  28:/opt/gcc-arm-none-eabi-9-2020-q2/arm-none-eabi/include/c++/9.3.1/bits/stl_iterator_base_funcs.h ****  * Hewlett-Packard Company
  29:/opt/gcc-arm-none-eabi-9-2020-q2/arm-none-eabi/include/c++/9.3.1/bits/stl_iterator_base_funcs.h ****  *
  30:/opt/gcc-arm-none-eabi-9-2020-q2/arm-none-eabi/include/c++/9.3.1/bits/stl_iterator_base_funcs.h ****  * Permission to use, copy, modify, distribute and sell this software
  31:/opt/gcc-arm-none-eabi-9-2020-q2/arm-none-eabi/include/c++/9.3.1/bits/stl_iterator_base_funcs.h ****  * and its documentation for any purpose is hereby granted without fee,
  32:/opt/gcc-arm-none-eabi-9-2020-q2/arm-none-eabi/include/c++/9.3.1/bits/stl_iterator_base_funcs.h ****  * provided that the above copyright notice appear in all copies and
  33:/opt/gcc-arm-none-eabi-9-2020-q2/arm-none-eabi/include/c++/9.3.1/bits/stl_iterator_base_funcs.h ****  * that both that copyright notice and this permission notice appear
  34:/opt/gcc-arm-none-eabi-9-2020-q2/arm-none-eabi/include/c++/9.3.1/bits/stl_iterator_base_funcs.h ****  * in supporting documentation.  Hewlett-Packard Company makes no
  35:/opt/gcc-arm-none-eabi-9-2020-q2/arm-none-eabi/include/c++/9.3.1/bits/stl_iterator_base_funcs.h ****  * representations about the suitability of this software for any
  36:/opt/gcc-arm-none-eabi-9-2020-q2/arm-none-eabi/include/c++/9.3.1/bits/stl_iterator_base_funcs.h ****  * purpose.  It is provided "as is" without express or implied warranty.
  37:/opt/gcc-arm-none-eabi-9-2020-q2/arm-none-eabi/include/c++/9.3.1/bits/stl_iterator_base_funcs.h ****  *
  38:/opt/gcc-arm-none-eabi-9-2020-q2/arm-none-eabi/include/c++/9.3.1/bits/stl_iterator_base_funcs.h ****  *
  39:/opt/gcc-arm-none-eabi-9-2020-q2/arm-none-eabi/include/c++/9.3.1/bits/stl_iterator_base_funcs.h ****  * Copyright (c) 1996-1998
  40:/opt/gcc-arm-none-eabi-9-2020-q2/arm-none-eabi/include/c++/9.3.1/bits/stl_iterator_base_funcs.h ****  * Silicon Graphics Computer Systems, Inc.
  41:/opt/gcc-arm-none-eabi-9-2020-q2/arm-none-eabi/include/c++/9.3.1/bits/stl_iterator_base_funcs.h ****  *
  42:/opt/gcc-arm-none-eabi-9-2020-q2/arm-none-eabi/include/c++/9.3.1/bits/stl_iterator_base_funcs.h ****  * Permission to use, copy, modify, distribute and sell this software
  43:/opt/gcc-arm-none-eabi-9-2020-q2/arm-none-eabi/include/c++/9.3.1/bits/stl_iterator_base_funcs.h ****  * and its documentation for any purpose is hereby granted without fee,
ARM GAS  /tmp/ccSnm6QV.s 			page 11


  44:/opt/gcc-arm-none-eabi-9-2020-q2/arm-none-eabi/include/c++/9.3.1/bits/stl_iterator_base_funcs.h ****  * provided that the above copyright notice appear in all copies and
  45:/opt/gcc-arm-none-eabi-9-2020-q2/arm-none-eabi/include/c++/9.3.1/bits/stl_iterator_base_funcs.h ****  * that both that copyright notice and this permission notice appear
  46:/opt/gcc-arm-none-eabi-9-2020-q2/arm-none-eabi/include/c++/9.3.1/bits/stl_iterator_base_funcs.h ****  * in supporting documentation.  Silicon Graphics makes no
  47:/opt/gcc-arm-none-eabi-9-2020-q2/arm-none-eabi/include/c++/9.3.1/bits/stl_iterator_base_funcs.h ****  * representations about the suitability of this software for any
  48:/opt/gcc-arm-none-eabi-9-2020-q2/arm-none-eabi/include/c++/9.3.1/bits/stl_iterator_base_funcs.h ****  * purpose.  It is provided "as is" without express or implied warranty.
  49:/opt/gcc-arm-none-eabi-9-2020-q2/arm-none-eabi/include/c++/9.3.1/bits/stl_iterator_base_funcs.h ****  */
  50:/opt/gcc-arm-none-eabi-9-2020-q2/arm-none-eabi/include/c++/9.3.1/bits/stl_iterator_base_funcs.h **** 
  51:/opt/gcc-arm-none-eabi-9-2020-q2/arm-none-eabi/include/c++/9.3.1/bits/stl_iterator_base_funcs.h **** /** @file bits/stl_iterator_base_funcs.h
  52:/opt/gcc-arm-none-eabi-9-2020-q2/arm-none-eabi/include/c++/9.3.1/bits/stl_iterator_base_funcs.h ****  *  This is an internal header file, included by other library headers.
  53:/opt/gcc-arm-none-eabi-9-2020-q2/arm-none-eabi/include/c++/9.3.1/bits/stl_iterator_base_funcs.h ****  *  Do not attempt to use it directly. @headername{iterator}
  54:/opt/gcc-arm-none-eabi-9-2020-q2/arm-none-eabi/include/c++/9.3.1/bits/stl_iterator_base_funcs.h ****  *
  55:/opt/gcc-arm-none-eabi-9-2020-q2/arm-none-eabi/include/c++/9.3.1/bits/stl_iterator_base_funcs.h ****  *  This file contains all of the general iterator-related utility
  56:/opt/gcc-arm-none-eabi-9-2020-q2/arm-none-eabi/include/c++/9.3.1/bits/stl_iterator_base_funcs.h ****  *  functions, such as distance() and advance().
  57:/opt/gcc-arm-none-eabi-9-2020-q2/arm-none-eabi/include/c++/9.3.1/bits/stl_iterator_base_funcs.h ****  */
  58:/opt/gcc-arm-none-eabi-9-2020-q2/arm-none-eabi/include/c++/9.3.1/bits/stl_iterator_base_funcs.h **** 
  59:/opt/gcc-arm-none-eabi-9-2020-q2/arm-none-eabi/include/c++/9.3.1/bits/stl_iterator_base_funcs.h **** #ifndef _STL_ITERATOR_BASE_FUNCS_H
  60:/opt/gcc-arm-none-eabi-9-2020-q2/arm-none-eabi/include/c++/9.3.1/bits/stl_iterator_base_funcs.h **** #define _STL_ITERATOR_BASE_FUNCS_H 1
  61:/opt/gcc-arm-none-eabi-9-2020-q2/arm-none-eabi/include/c++/9.3.1/bits/stl_iterator_base_funcs.h **** 
  62:/opt/gcc-arm-none-eabi-9-2020-q2/arm-none-eabi/include/c++/9.3.1/bits/stl_iterator_base_funcs.h **** #pragma GCC system_header
  63:/opt/gcc-arm-none-eabi-9-2020-q2/arm-none-eabi/include/c++/9.3.1/bits/stl_iterator_base_funcs.h **** 
  64:/opt/gcc-arm-none-eabi-9-2020-q2/arm-none-eabi/include/c++/9.3.1/bits/stl_iterator_base_funcs.h **** #include <bits/concept_check.h>
  65:/opt/gcc-arm-none-eabi-9-2020-q2/arm-none-eabi/include/c++/9.3.1/bits/stl_iterator_base_funcs.h **** #include <debug/assertions.h>
  66:/opt/gcc-arm-none-eabi-9-2020-q2/arm-none-eabi/include/c++/9.3.1/bits/stl_iterator_base_funcs.h **** 
  67:/opt/gcc-arm-none-eabi-9-2020-q2/arm-none-eabi/include/c++/9.3.1/bits/stl_iterator_base_funcs.h **** namespace std _GLIBCXX_VISIBILITY(default)
  68:/opt/gcc-arm-none-eabi-9-2020-q2/arm-none-eabi/include/c++/9.3.1/bits/stl_iterator_base_funcs.h **** {
  69:/opt/gcc-arm-none-eabi-9-2020-q2/arm-none-eabi/include/c++/9.3.1/bits/stl_iterator_base_funcs.h **** _GLIBCXX_BEGIN_NAMESPACE_VERSION
  70:/opt/gcc-arm-none-eabi-9-2020-q2/arm-none-eabi/include/c++/9.3.1/bits/stl_iterator_base_funcs.h **** 
  71:/opt/gcc-arm-none-eabi-9-2020-q2/arm-none-eabi/include/c++/9.3.1/bits/stl_iterator_base_funcs.h **** _GLIBCXX_BEGIN_NAMESPACE_CONTAINER
  72:/opt/gcc-arm-none-eabi-9-2020-q2/arm-none-eabi/include/c++/9.3.1/bits/stl_iterator_base_funcs.h ****   // Forward declaration for the overloads of __distance.
  73:/opt/gcc-arm-none-eabi-9-2020-q2/arm-none-eabi/include/c++/9.3.1/bits/stl_iterator_base_funcs.h ****   template <typename> struct _List_iterator;
  74:/opt/gcc-arm-none-eabi-9-2020-q2/arm-none-eabi/include/c++/9.3.1/bits/stl_iterator_base_funcs.h ****   template <typename> struct _List_const_iterator;
  75:/opt/gcc-arm-none-eabi-9-2020-q2/arm-none-eabi/include/c++/9.3.1/bits/stl_iterator_base_funcs.h **** _GLIBCXX_END_NAMESPACE_CONTAINER
  76:/opt/gcc-arm-none-eabi-9-2020-q2/arm-none-eabi/include/c++/9.3.1/bits/stl_iterator_base_funcs.h **** 
  77:/opt/gcc-arm-none-eabi-9-2020-q2/arm-none-eabi/include/c++/9.3.1/bits/stl_iterator_base_funcs.h ****   template<typename _InputIterator>
  78:/opt/gcc-arm-none-eabi-9-2020-q2/arm-none-eabi/include/c++/9.3.1/bits/stl_iterator_base_funcs.h ****     inline _GLIBCXX14_CONSTEXPR
  79:/opt/gcc-arm-none-eabi-9-2020-q2/arm-none-eabi/include/c++/9.3.1/bits/stl_iterator_base_funcs.h ****     typename iterator_traits<_InputIterator>::difference_type
  80:/opt/gcc-arm-none-eabi-9-2020-q2/arm-none-eabi/include/c++/9.3.1/bits/stl_iterator_base_funcs.h ****     __distance(_InputIterator __first, _InputIterator __last,
  81:/opt/gcc-arm-none-eabi-9-2020-q2/arm-none-eabi/include/c++/9.3.1/bits/stl_iterator_base_funcs.h ****                input_iterator_tag)
  82:/opt/gcc-arm-none-eabi-9-2020-q2/arm-none-eabi/include/c++/9.3.1/bits/stl_iterator_base_funcs.h ****     {
  83:/opt/gcc-arm-none-eabi-9-2020-q2/arm-none-eabi/include/c++/9.3.1/bits/stl_iterator_base_funcs.h ****       // concept requirements
  84:/opt/gcc-arm-none-eabi-9-2020-q2/arm-none-eabi/include/c++/9.3.1/bits/stl_iterator_base_funcs.h ****       __glibcxx_function_requires(_InputIteratorConcept<_InputIterator>)
  85:/opt/gcc-arm-none-eabi-9-2020-q2/arm-none-eabi/include/c++/9.3.1/bits/stl_iterator_base_funcs.h **** 
  86:/opt/gcc-arm-none-eabi-9-2020-q2/arm-none-eabi/include/c++/9.3.1/bits/stl_iterator_base_funcs.h ****       typename iterator_traits<_InputIterator>::difference_type __n = 0;
  87:/opt/gcc-arm-none-eabi-9-2020-q2/arm-none-eabi/include/c++/9.3.1/bits/stl_iterator_base_funcs.h ****       while (__first != __last)
  88:/opt/gcc-arm-none-eabi-9-2020-q2/arm-none-eabi/include/c++/9.3.1/bits/stl_iterator_base_funcs.h **** 	{
  89:/opt/gcc-arm-none-eabi-9-2020-q2/arm-none-eabi/include/c++/9.3.1/bits/stl_iterator_base_funcs.h **** 	  ++__first;
  90:/opt/gcc-arm-none-eabi-9-2020-q2/arm-none-eabi/include/c++/9.3.1/bits/stl_iterator_base_funcs.h **** 	  ++__n;
  91:/opt/gcc-arm-none-eabi-9-2020-q2/arm-none-eabi/include/c++/9.3.1/bits/stl_iterator_base_funcs.h **** 	}
  92:/opt/gcc-arm-none-eabi-9-2020-q2/arm-none-eabi/include/c++/9.3.1/bits/stl_iterator_base_funcs.h ****       return __n;
  93:/opt/gcc-arm-none-eabi-9-2020-q2/arm-none-eabi/include/c++/9.3.1/bits/stl_iterator_base_funcs.h ****     }
  94:/opt/gcc-arm-none-eabi-9-2020-q2/arm-none-eabi/include/c++/9.3.1/bits/stl_iterator_base_funcs.h **** 
  95:/opt/gcc-arm-none-eabi-9-2020-q2/arm-none-eabi/include/c++/9.3.1/bits/stl_iterator_base_funcs.h ****   template<typename _RandomAccessIterator>
  96:/opt/gcc-arm-none-eabi-9-2020-q2/arm-none-eabi/include/c++/9.3.1/bits/stl_iterator_base_funcs.h ****     inline _GLIBCXX14_CONSTEXPR
  97:/opt/gcc-arm-none-eabi-9-2020-q2/arm-none-eabi/include/c++/9.3.1/bits/stl_iterator_base_funcs.h ****     typename iterator_traits<_RandomAccessIterator>::difference_type
  98:/opt/gcc-arm-none-eabi-9-2020-q2/arm-none-eabi/include/c++/9.3.1/bits/stl_iterator_base_funcs.h ****     __distance(_RandomAccessIterator __first, _RandomAccessIterator __last,
  99:/opt/gcc-arm-none-eabi-9-2020-q2/arm-none-eabi/include/c++/9.3.1/bits/stl_iterator_base_funcs.h ****                random_access_iterator_tag)
 100:/opt/gcc-arm-none-eabi-9-2020-q2/arm-none-eabi/include/c++/9.3.1/bits/stl_iterator_base_funcs.h ****     {
ARM GAS  /tmp/ccSnm6QV.s 			page 12


 101:/opt/gcc-arm-none-eabi-9-2020-q2/arm-none-eabi/include/c++/9.3.1/bits/stl_iterator_base_funcs.h ****       // concept requirements
 102:/opt/gcc-arm-none-eabi-9-2020-q2/arm-none-eabi/include/c++/9.3.1/bits/stl_iterator_base_funcs.h ****       __glibcxx_function_requires(_RandomAccessIteratorConcept<
 103:/opt/gcc-arm-none-eabi-9-2020-q2/arm-none-eabi/include/c++/9.3.1/bits/stl_iterator_base_funcs.h **** 				  _RandomAccessIterator>)
 104:/opt/gcc-arm-none-eabi-9-2020-q2/arm-none-eabi/include/c++/9.3.1/bits/stl_iterator_base_funcs.h ****       return __last - __first;
 105:/opt/gcc-arm-none-eabi-9-2020-q2/arm-none-eabi/include/c++/9.3.1/bits/stl_iterator_base_funcs.h ****     }
 106:/opt/gcc-arm-none-eabi-9-2020-q2/arm-none-eabi/include/c++/9.3.1/bits/stl_iterator_base_funcs.h **** 
 107:/opt/gcc-arm-none-eabi-9-2020-q2/arm-none-eabi/include/c++/9.3.1/bits/stl_iterator_base_funcs.h **** #if _GLIBCXX_USE_CXX11_ABI
 108:/opt/gcc-arm-none-eabi-9-2020-q2/arm-none-eabi/include/c++/9.3.1/bits/stl_iterator_base_funcs.h ****   // Forward declaration because of the qualified call in distance.
 109:/opt/gcc-arm-none-eabi-9-2020-q2/arm-none-eabi/include/c++/9.3.1/bits/stl_iterator_base_funcs.h ****   template<typename _Tp>
 110:/opt/gcc-arm-none-eabi-9-2020-q2/arm-none-eabi/include/c++/9.3.1/bits/stl_iterator_base_funcs.h ****     ptrdiff_t
 111:/opt/gcc-arm-none-eabi-9-2020-q2/arm-none-eabi/include/c++/9.3.1/bits/stl_iterator_base_funcs.h ****     __distance(_GLIBCXX_STD_C::_List_iterator<_Tp>,
 112:/opt/gcc-arm-none-eabi-9-2020-q2/arm-none-eabi/include/c++/9.3.1/bits/stl_iterator_base_funcs.h **** 	       _GLIBCXX_STD_C::_List_iterator<_Tp>,
 113:/opt/gcc-arm-none-eabi-9-2020-q2/arm-none-eabi/include/c++/9.3.1/bits/stl_iterator_base_funcs.h **** 	       input_iterator_tag);
 114:/opt/gcc-arm-none-eabi-9-2020-q2/arm-none-eabi/include/c++/9.3.1/bits/stl_iterator_base_funcs.h **** 
 115:/opt/gcc-arm-none-eabi-9-2020-q2/arm-none-eabi/include/c++/9.3.1/bits/stl_iterator_base_funcs.h ****   template<typename _Tp>
 116:/opt/gcc-arm-none-eabi-9-2020-q2/arm-none-eabi/include/c++/9.3.1/bits/stl_iterator_base_funcs.h ****     ptrdiff_t
 117:/opt/gcc-arm-none-eabi-9-2020-q2/arm-none-eabi/include/c++/9.3.1/bits/stl_iterator_base_funcs.h ****     __distance(_GLIBCXX_STD_C::_List_const_iterator<_Tp>,
 118:/opt/gcc-arm-none-eabi-9-2020-q2/arm-none-eabi/include/c++/9.3.1/bits/stl_iterator_base_funcs.h **** 	       _GLIBCXX_STD_C::_List_const_iterator<_Tp>,
 119:/opt/gcc-arm-none-eabi-9-2020-q2/arm-none-eabi/include/c++/9.3.1/bits/stl_iterator_base_funcs.h **** 	       input_iterator_tag);
 120:/opt/gcc-arm-none-eabi-9-2020-q2/arm-none-eabi/include/c++/9.3.1/bits/stl_iterator_base_funcs.h **** #endif
 121:/opt/gcc-arm-none-eabi-9-2020-q2/arm-none-eabi/include/c++/9.3.1/bits/stl_iterator_base_funcs.h **** 
 122:/opt/gcc-arm-none-eabi-9-2020-q2/arm-none-eabi/include/c++/9.3.1/bits/stl_iterator_base_funcs.h ****   /**
 123:/opt/gcc-arm-none-eabi-9-2020-q2/arm-none-eabi/include/c++/9.3.1/bits/stl_iterator_base_funcs.h ****    *  @brief A generalization of pointer arithmetic.
 124:/opt/gcc-arm-none-eabi-9-2020-q2/arm-none-eabi/include/c++/9.3.1/bits/stl_iterator_base_funcs.h ****    *  @param  __first  An input iterator.
 125:/opt/gcc-arm-none-eabi-9-2020-q2/arm-none-eabi/include/c++/9.3.1/bits/stl_iterator_base_funcs.h ****    *  @param  __last  An input iterator.
 126:/opt/gcc-arm-none-eabi-9-2020-q2/arm-none-eabi/include/c++/9.3.1/bits/stl_iterator_base_funcs.h ****    *  @return  The distance between them.
 127:/opt/gcc-arm-none-eabi-9-2020-q2/arm-none-eabi/include/c++/9.3.1/bits/stl_iterator_base_funcs.h ****    *
 128:/opt/gcc-arm-none-eabi-9-2020-q2/arm-none-eabi/include/c++/9.3.1/bits/stl_iterator_base_funcs.h ****    *  Returns @c n such that __first + n == __last.  This requires
 129:/opt/gcc-arm-none-eabi-9-2020-q2/arm-none-eabi/include/c++/9.3.1/bits/stl_iterator_base_funcs.h ****    *  that @p __last must be reachable from @p __first.  Note that @c
 130:/opt/gcc-arm-none-eabi-9-2020-q2/arm-none-eabi/include/c++/9.3.1/bits/stl_iterator_base_funcs.h ****    *  n may be negative.
 131:/opt/gcc-arm-none-eabi-9-2020-q2/arm-none-eabi/include/c++/9.3.1/bits/stl_iterator_base_funcs.h ****    *
 132:/opt/gcc-arm-none-eabi-9-2020-q2/arm-none-eabi/include/c++/9.3.1/bits/stl_iterator_base_funcs.h ****    *  For random access iterators, this uses their @c + and @c - operations
 133:/opt/gcc-arm-none-eabi-9-2020-q2/arm-none-eabi/include/c++/9.3.1/bits/stl_iterator_base_funcs.h ****    *  and are constant time.  For other %iterator classes they are linear time.
 134:/opt/gcc-arm-none-eabi-9-2020-q2/arm-none-eabi/include/c++/9.3.1/bits/stl_iterator_base_funcs.h ****   */
 135:/opt/gcc-arm-none-eabi-9-2020-q2/arm-none-eabi/include/c++/9.3.1/bits/stl_iterator_base_funcs.h ****   template<typename _InputIterator>
 136:/opt/gcc-arm-none-eabi-9-2020-q2/arm-none-eabi/include/c++/9.3.1/bits/stl_iterator_base_funcs.h ****     inline _GLIBCXX17_CONSTEXPR
 137:/opt/gcc-arm-none-eabi-9-2020-q2/arm-none-eabi/include/c++/9.3.1/bits/stl_iterator_base_funcs.h ****     typename iterator_traits<_InputIterator>::difference_type
 138:/opt/gcc-arm-none-eabi-9-2020-q2/arm-none-eabi/include/c++/9.3.1/bits/stl_iterator_base_funcs.h ****     distance(_InputIterator __first, _InputIterator __last)
 262              		.loc 3 138 5 is_stmt 1 view .LVU47
 263              	.LBB1133:
 264              	.LBI1133:
  98:/opt/gcc-arm-none-eabi-9-2020-q2/arm-none-eabi/include/c++/9.3.1/bits/stl_iterator_base_funcs.h ****                random_access_iterator_tag)
 265              		.loc 3 98 5 view .LVU48
 266              	.LBB1134:
 104:/opt/gcc-arm-none-eabi-9-2020-q2/arm-none-eabi/include/c++/9.3.1/bits/stl_iterator_base_funcs.h ****     }
 267              		.loc 3 104 23 is_stmt 0 view .LVU49
 268 000a 941B     		subs	r4, r2, r6
 269              	.LVL22:
 104:/opt/gcc-arm-none-eabi-9-2020-q2/arm-none-eabi/include/c++/9.3.1/bits/stl_iterator_base_funcs.h ****     }
 270              		.loc 3 104 23 view .LVU50
 271              	.LBE1134:
 272              	.LBE1133:
 273              	.LBE1132:
 212:/opt/gcc-arm-none-eabi-9-2020-q2/arm-none-eabi/include/c++/9.3.1/bits/basic_string.tcc **** 	  std::__throw_logic_error(__N("basic_string::"
 213:/opt/gcc-arm-none-eabi-9-2020-q2/arm-none-eabi/include/c++/9.3.1/bits/basic_string.tcc **** 				       "_M_construct null not valid"));
 214:/opt/gcc-arm-none-eabi-9-2020-q2/arm-none-eabi/include/c++/9.3.1/bits/basic_string.tcc **** 
 215:/opt/gcc-arm-none-eabi-9-2020-q2/arm-none-eabi/include/c++/9.3.1/bits/basic_string.tcc **** 	size_type __dnew = static_cast<size_type>(std::distance(__beg, __end));
ARM GAS  /tmp/ccSnm6QV.s 			page 13


 274              		.loc 2 215 12 view .LVU51
 275 000c 0194     		str	r4, [sp, #4]
 216:/opt/gcc-arm-none-eabi-9-2020-q2/arm-none-eabi/include/c++/9.3.1/bits/basic_string.tcc **** 
 217:/opt/gcc-arm-none-eabi-9-2020-q2/arm-none-eabi/include/c++/9.3.1/bits/basic_string.tcc **** 	if (__dnew > size_type(_S_local_capacity))
 276              		.loc 2 217 2 view .LVU52
 277 000e 0F2C     		cmp	r4, #15
 278 0010 0ED8     		bhi	.L16
 279              	.LVL23:
 280              	.L12:
 281              	.LBB1135:
 282              	.LBI1135:
 283              		.file 4 "/opt/gcc-arm-none-eabi-9-2020-q2/arm-none-eabi/include/c++/9.3.1/bits/basic_string.h"
   1:/opt/gcc-arm-none-eabi-9-2020-q2/arm-none-eabi/include/c++/9.3.1/bits/basic_string.h **** // Components for manipulating sequences of characters -*- C++ -*-
   2:/opt/gcc-arm-none-eabi-9-2020-q2/arm-none-eabi/include/c++/9.3.1/bits/basic_string.h **** 
   3:/opt/gcc-arm-none-eabi-9-2020-q2/arm-none-eabi/include/c++/9.3.1/bits/basic_string.h **** // Copyright (C) 1997-2019 Free Software Foundation, Inc.
   4:/opt/gcc-arm-none-eabi-9-2020-q2/arm-none-eabi/include/c++/9.3.1/bits/basic_string.h **** //
   5:/opt/gcc-arm-none-eabi-9-2020-q2/arm-none-eabi/include/c++/9.3.1/bits/basic_string.h **** // This file is part of the GNU ISO C++ Library.  This library is free
   6:/opt/gcc-arm-none-eabi-9-2020-q2/arm-none-eabi/include/c++/9.3.1/bits/basic_string.h **** // software; you can redistribute it and/or modify it under the
   7:/opt/gcc-arm-none-eabi-9-2020-q2/arm-none-eabi/include/c++/9.3.1/bits/basic_string.h **** // terms of the GNU General Public License as published by the
   8:/opt/gcc-arm-none-eabi-9-2020-q2/arm-none-eabi/include/c++/9.3.1/bits/basic_string.h **** // Free Software Foundation; either version 3, or (at your option)
   9:/opt/gcc-arm-none-eabi-9-2020-q2/arm-none-eabi/include/c++/9.3.1/bits/basic_string.h **** // any later version.
  10:/opt/gcc-arm-none-eabi-9-2020-q2/arm-none-eabi/include/c++/9.3.1/bits/basic_string.h **** 
  11:/opt/gcc-arm-none-eabi-9-2020-q2/arm-none-eabi/include/c++/9.3.1/bits/basic_string.h **** // This library is distributed in the hope that it will be useful,
  12:/opt/gcc-arm-none-eabi-9-2020-q2/arm-none-eabi/include/c++/9.3.1/bits/basic_string.h **** // but WITHOUT ANY WARRANTY; without even the implied warranty of
  13:/opt/gcc-arm-none-eabi-9-2020-q2/arm-none-eabi/include/c++/9.3.1/bits/basic_string.h **** // MERCHANTABILITY or FITNESS FOR A PARTICULAR PURPOSE.  See the
  14:/opt/gcc-arm-none-eabi-9-2020-q2/arm-none-eabi/include/c++/9.3.1/bits/basic_string.h **** // GNU General Public License for more details.
  15:/opt/gcc-arm-none-eabi-9-2020-q2/arm-none-eabi/include/c++/9.3.1/bits/basic_string.h **** 
  16:/opt/gcc-arm-none-eabi-9-2020-q2/arm-none-eabi/include/c++/9.3.1/bits/basic_string.h **** // Under Section 7 of GPL version 3, you are granted additional
  17:/opt/gcc-arm-none-eabi-9-2020-q2/arm-none-eabi/include/c++/9.3.1/bits/basic_string.h **** // permissions described in the GCC Runtime Library Exception, version
  18:/opt/gcc-arm-none-eabi-9-2020-q2/arm-none-eabi/include/c++/9.3.1/bits/basic_string.h **** // 3.1, as published by the Free Software Foundation.
  19:/opt/gcc-arm-none-eabi-9-2020-q2/arm-none-eabi/include/c++/9.3.1/bits/basic_string.h **** 
  20:/opt/gcc-arm-none-eabi-9-2020-q2/arm-none-eabi/include/c++/9.3.1/bits/basic_string.h **** // You should have received a copy of the GNU General Public License and
  21:/opt/gcc-arm-none-eabi-9-2020-q2/arm-none-eabi/include/c++/9.3.1/bits/basic_string.h **** // a copy of the GCC Runtime Library Exception along with this program;
  22:/opt/gcc-arm-none-eabi-9-2020-q2/arm-none-eabi/include/c++/9.3.1/bits/basic_string.h **** // see the files COPYING3 and COPYING.RUNTIME respectively.  If not, see
  23:/opt/gcc-arm-none-eabi-9-2020-q2/arm-none-eabi/include/c++/9.3.1/bits/basic_string.h **** // <http://www.gnu.org/licenses/>.
  24:/opt/gcc-arm-none-eabi-9-2020-q2/arm-none-eabi/include/c++/9.3.1/bits/basic_string.h **** 
  25:/opt/gcc-arm-none-eabi-9-2020-q2/arm-none-eabi/include/c++/9.3.1/bits/basic_string.h **** /** @file bits/basic_string.h
  26:/opt/gcc-arm-none-eabi-9-2020-q2/arm-none-eabi/include/c++/9.3.1/bits/basic_string.h ****  *  This is an internal header file, included by other library headers.
  27:/opt/gcc-arm-none-eabi-9-2020-q2/arm-none-eabi/include/c++/9.3.1/bits/basic_string.h ****  *  Do not attempt to use it directly. @headername{string}
  28:/opt/gcc-arm-none-eabi-9-2020-q2/arm-none-eabi/include/c++/9.3.1/bits/basic_string.h ****  */
  29:/opt/gcc-arm-none-eabi-9-2020-q2/arm-none-eabi/include/c++/9.3.1/bits/basic_string.h **** 
  30:/opt/gcc-arm-none-eabi-9-2020-q2/arm-none-eabi/include/c++/9.3.1/bits/basic_string.h **** //
  31:/opt/gcc-arm-none-eabi-9-2020-q2/arm-none-eabi/include/c++/9.3.1/bits/basic_string.h **** // ISO C++ 14882: 21 Strings library
  32:/opt/gcc-arm-none-eabi-9-2020-q2/arm-none-eabi/include/c++/9.3.1/bits/basic_string.h **** //
  33:/opt/gcc-arm-none-eabi-9-2020-q2/arm-none-eabi/include/c++/9.3.1/bits/basic_string.h **** 
  34:/opt/gcc-arm-none-eabi-9-2020-q2/arm-none-eabi/include/c++/9.3.1/bits/basic_string.h **** #ifndef _BASIC_STRING_H
  35:/opt/gcc-arm-none-eabi-9-2020-q2/arm-none-eabi/include/c++/9.3.1/bits/basic_string.h **** #define _BASIC_STRING_H 1
  36:/opt/gcc-arm-none-eabi-9-2020-q2/arm-none-eabi/include/c++/9.3.1/bits/basic_string.h **** 
  37:/opt/gcc-arm-none-eabi-9-2020-q2/arm-none-eabi/include/c++/9.3.1/bits/basic_string.h **** #pragma GCC system_header
  38:/opt/gcc-arm-none-eabi-9-2020-q2/arm-none-eabi/include/c++/9.3.1/bits/basic_string.h **** 
  39:/opt/gcc-arm-none-eabi-9-2020-q2/arm-none-eabi/include/c++/9.3.1/bits/basic_string.h **** #include <ext/atomicity.h>
  40:/opt/gcc-arm-none-eabi-9-2020-q2/arm-none-eabi/include/c++/9.3.1/bits/basic_string.h **** #include <ext/alloc_traits.h>
  41:/opt/gcc-arm-none-eabi-9-2020-q2/arm-none-eabi/include/c++/9.3.1/bits/basic_string.h **** #include <debug/debug.h>
  42:/opt/gcc-arm-none-eabi-9-2020-q2/arm-none-eabi/include/c++/9.3.1/bits/basic_string.h **** 
  43:/opt/gcc-arm-none-eabi-9-2020-q2/arm-none-eabi/include/c++/9.3.1/bits/basic_string.h **** #if __cplusplus >= 201103L
  44:/opt/gcc-arm-none-eabi-9-2020-q2/arm-none-eabi/include/c++/9.3.1/bits/basic_string.h **** #include <initializer_list>
  45:/opt/gcc-arm-none-eabi-9-2020-q2/arm-none-eabi/include/c++/9.3.1/bits/basic_string.h **** #endif
ARM GAS  /tmp/ccSnm6QV.s 			page 14


  46:/opt/gcc-arm-none-eabi-9-2020-q2/arm-none-eabi/include/c++/9.3.1/bits/basic_string.h **** 
  47:/opt/gcc-arm-none-eabi-9-2020-q2/arm-none-eabi/include/c++/9.3.1/bits/basic_string.h **** #if __cplusplus >= 201703L
  48:/opt/gcc-arm-none-eabi-9-2020-q2/arm-none-eabi/include/c++/9.3.1/bits/basic_string.h **** # include <string_view>
  49:/opt/gcc-arm-none-eabi-9-2020-q2/arm-none-eabi/include/c++/9.3.1/bits/basic_string.h **** #endif
  50:/opt/gcc-arm-none-eabi-9-2020-q2/arm-none-eabi/include/c++/9.3.1/bits/basic_string.h **** 
  51:/opt/gcc-arm-none-eabi-9-2020-q2/arm-none-eabi/include/c++/9.3.1/bits/basic_string.h **** 
  52:/opt/gcc-arm-none-eabi-9-2020-q2/arm-none-eabi/include/c++/9.3.1/bits/basic_string.h **** namespace std _GLIBCXX_VISIBILITY(default)
  53:/opt/gcc-arm-none-eabi-9-2020-q2/arm-none-eabi/include/c++/9.3.1/bits/basic_string.h **** {
  54:/opt/gcc-arm-none-eabi-9-2020-q2/arm-none-eabi/include/c++/9.3.1/bits/basic_string.h **** _GLIBCXX_BEGIN_NAMESPACE_VERSION
  55:/opt/gcc-arm-none-eabi-9-2020-q2/arm-none-eabi/include/c++/9.3.1/bits/basic_string.h **** 
  56:/opt/gcc-arm-none-eabi-9-2020-q2/arm-none-eabi/include/c++/9.3.1/bits/basic_string.h **** #if _GLIBCXX_USE_CXX11_ABI
  57:/opt/gcc-arm-none-eabi-9-2020-q2/arm-none-eabi/include/c++/9.3.1/bits/basic_string.h **** _GLIBCXX_BEGIN_NAMESPACE_CXX11
  58:/opt/gcc-arm-none-eabi-9-2020-q2/arm-none-eabi/include/c++/9.3.1/bits/basic_string.h ****   /**
  59:/opt/gcc-arm-none-eabi-9-2020-q2/arm-none-eabi/include/c++/9.3.1/bits/basic_string.h ****    *  @class basic_string basic_string.h <string>
  60:/opt/gcc-arm-none-eabi-9-2020-q2/arm-none-eabi/include/c++/9.3.1/bits/basic_string.h ****    *  @brief  Managing sequences of characters and character-like objects.
  61:/opt/gcc-arm-none-eabi-9-2020-q2/arm-none-eabi/include/c++/9.3.1/bits/basic_string.h ****    *
  62:/opt/gcc-arm-none-eabi-9-2020-q2/arm-none-eabi/include/c++/9.3.1/bits/basic_string.h ****    *  @ingroup strings
  63:/opt/gcc-arm-none-eabi-9-2020-q2/arm-none-eabi/include/c++/9.3.1/bits/basic_string.h ****    *  @ingroup sequences
  64:/opt/gcc-arm-none-eabi-9-2020-q2/arm-none-eabi/include/c++/9.3.1/bits/basic_string.h ****    *
  65:/opt/gcc-arm-none-eabi-9-2020-q2/arm-none-eabi/include/c++/9.3.1/bits/basic_string.h ****    *  @tparam _CharT  Type of character
  66:/opt/gcc-arm-none-eabi-9-2020-q2/arm-none-eabi/include/c++/9.3.1/bits/basic_string.h ****    *  @tparam _Traits  Traits for character type, defaults to
  67:/opt/gcc-arm-none-eabi-9-2020-q2/arm-none-eabi/include/c++/9.3.1/bits/basic_string.h ****    *                   char_traits<_CharT>.
  68:/opt/gcc-arm-none-eabi-9-2020-q2/arm-none-eabi/include/c++/9.3.1/bits/basic_string.h ****    *  @tparam _Alloc  Allocator type, defaults to allocator<_CharT>.
  69:/opt/gcc-arm-none-eabi-9-2020-q2/arm-none-eabi/include/c++/9.3.1/bits/basic_string.h ****    *
  70:/opt/gcc-arm-none-eabi-9-2020-q2/arm-none-eabi/include/c++/9.3.1/bits/basic_string.h ****    *  Meets the requirements of a <a href="tables.html#65">container</a>, a
  71:/opt/gcc-arm-none-eabi-9-2020-q2/arm-none-eabi/include/c++/9.3.1/bits/basic_string.h ****    *  <a href="tables.html#66">reversible container</a>, and a
  72:/opt/gcc-arm-none-eabi-9-2020-q2/arm-none-eabi/include/c++/9.3.1/bits/basic_string.h ****    *  <a href="tables.html#67">sequence</a>.  Of the
  73:/opt/gcc-arm-none-eabi-9-2020-q2/arm-none-eabi/include/c++/9.3.1/bits/basic_string.h ****    *  <a href="tables.html#68">optional sequence requirements</a>, only
  74:/opt/gcc-arm-none-eabi-9-2020-q2/arm-none-eabi/include/c++/9.3.1/bits/basic_string.h ****    *  @c push_back, @c at, and @c %array access are supported.
  75:/opt/gcc-arm-none-eabi-9-2020-q2/arm-none-eabi/include/c++/9.3.1/bits/basic_string.h ****    */
  76:/opt/gcc-arm-none-eabi-9-2020-q2/arm-none-eabi/include/c++/9.3.1/bits/basic_string.h ****   template<typename _CharT, typename _Traits, typename _Alloc>
  77:/opt/gcc-arm-none-eabi-9-2020-q2/arm-none-eabi/include/c++/9.3.1/bits/basic_string.h ****     class basic_string
  78:/opt/gcc-arm-none-eabi-9-2020-q2/arm-none-eabi/include/c++/9.3.1/bits/basic_string.h ****     {
  79:/opt/gcc-arm-none-eabi-9-2020-q2/arm-none-eabi/include/c++/9.3.1/bits/basic_string.h ****       typedef typename __gnu_cxx::__alloc_traits<_Alloc>::template
  80:/opt/gcc-arm-none-eabi-9-2020-q2/arm-none-eabi/include/c++/9.3.1/bits/basic_string.h **** 	rebind<_CharT>::other _Char_alloc_type;
  81:/opt/gcc-arm-none-eabi-9-2020-q2/arm-none-eabi/include/c++/9.3.1/bits/basic_string.h ****       typedef __gnu_cxx::__alloc_traits<_Char_alloc_type> _Alloc_traits;
  82:/opt/gcc-arm-none-eabi-9-2020-q2/arm-none-eabi/include/c++/9.3.1/bits/basic_string.h **** 
  83:/opt/gcc-arm-none-eabi-9-2020-q2/arm-none-eabi/include/c++/9.3.1/bits/basic_string.h ****       // Types:
  84:/opt/gcc-arm-none-eabi-9-2020-q2/arm-none-eabi/include/c++/9.3.1/bits/basic_string.h ****     public:
  85:/opt/gcc-arm-none-eabi-9-2020-q2/arm-none-eabi/include/c++/9.3.1/bits/basic_string.h ****       typedef _Traits					traits_type;
  86:/opt/gcc-arm-none-eabi-9-2020-q2/arm-none-eabi/include/c++/9.3.1/bits/basic_string.h ****       typedef typename _Traits::char_type		value_type;
  87:/opt/gcc-arm-none-eabi-9-2020-q2/arm-none-eabi/include/c++/9.3.1/bits/basic_string.h ****       typedef _Char_alloc_type				allocator_type;
  88:/opt/gcc-arm-none-eabi-9-2020-q2/arm-none-eabi/include/c++/9.3.1/bits/basic_string.h ****       typedef typename _Alloc_traits::size_type		size_type;
  89:/opt/gcc-arm-none-eabi-9-2020-q2/arm-none-eabi/include/c++/9.3.1/bits/basic_string.h ****       typedef typename _Alloc_traits::difference_type	difference_type;
  90:/opt/gcc-arm-none-eabi-9-2020-q2/arm-none-eabi/include/c++/9.3.1/bits/basic_string.h ****       typedef typename _Alloc_traits::reference		reference;
  91:/opt/gcc-arm-none-eabi-9-2020-q2/arm-none-eabi/include/c++/9.3.1/bits/basic_string.h ****       typedef typename _Alloc_traits::const_reference	const_reference;
  92:/opt/gcc-arm-none-eabi-9-2020-q2/arm-none-eabi/include/c++/9.3.1/bits/basic_string.h ****       typedef typename _Alloc_traits::pointer		pointer;
  93:/opt/gcc-arm-none-eabi-9-2020-q2/arm-none-eabi/include/c++/9.3.1/bits/basic_string.h ****       typedef typename _Alloc_traits::const_pointer	const_pointer;
  94:/opt/gcc-arm-none-eabi-9-2020-q2/arm-none-eabi/include/c++/9.3.1/bits/basic_string.h ****       typedef __gnu_cxx::__normal_iterator<pointer, basic_string>  iterator;
  95:/opt/gcc-arm-none-eabi-9-2020-q2/arm-none-eabi/include/c++/9.3.1/bits/basic_string.h ****       typedef __gnu_cxx::__normal_iterator<const_pointer, basic_string>
  96:/opt/gcc-arm-none-eabi-9-2020-q2/arm-none-eabi/include/c++/9.3.1/bits/basic_string.h **** 							const_iterator;
  97:/opt/gcc-arm-none-eabi-9-2020-q2/arm-none-eabi/include/c++/9.3.1/bits/basic_string.h ****       typedef std::reverse_iterator<const_iterator>	const_reverse_iterator;
  98:/opt/gcc-arm-none-eabi-9-2020-q2/arm-none-eabi/include/c++/9.3.1/bits/basic_string.h ****       typedef std::reverse_iterator<iterator>		reverse_iterator;
  99:/opt/gcc-arm-none-eabi-9-2020-q2/arm-none-eabi/include/c++/9.3.1/bits/basic_string.h **** 
 100:/opt/gcc-arm-none-eabi-9-2020-q2/arm-none-eabi/include/c++/9.3.1/bits/basic_string.h ****       ///  Value returned by various member functions when they fail.
 101:/opt/gcc-arm-none-eabi-9-2020-q2/arm-none-eabi/include/c++/9.3.1/bits/basic_string.h ****       static const size_type	npos = static_cast<size_type>(-1);
 102:/opt/gcc-arm-none-eabi-9-2020-q2/arm-none-eabi/include/c++/9.3.1/bits/basic_string.h **** 
ARM GAS  /tmp/ccSnm6QV.s 			page 15


 103:/opt/gcc-arm-none-eabi-9-2020-q2/arm-none-eabi/include/c++/9.3.1/bits/basic_string.h ****     protected:
 104:/opt/gcc-arm-none-eabi-9-2020-q2/arm-none-eabi/include/c++/9.3.1/bits/basic_string.h ****       // type used for positions in insert, erase etc.
 105:/opt/gcc-arm-none-eabi-9-2020-q2/arm-none-eabi/include/c++/9.3.1/bits/basic_string.h **** #if __cplusplus < 201103L
 106:/opt/gcc-arm-none-eabi-9-2020-q2/arm-none-eabi/include/c++/9.3.1/bits/basic_string.h ****       typedef iterator __const_iterator;
 107:/opt/gcc-arm-none-eabi-9-2020-q2/arm-none-eabi/include/c++/9.3.1/bits/basic_string.h **** #else
 108:/opt/gcc-arm-none-eabi-9-2020-q2/arm-none-eabi/include/c++/9.3.1/bits/basic_string.h ****       typedef const_iterator __const_iterator;
 109:/opt/gcc-arm-none-eabi-9-2020-q2/arm-none-eabi/include/c++/9.3.1/bits/basic_string.h **** #endif
 110:/opt/gcc-arm-none-eabi-9-2020-q2/arm-none-eabi/include/c++/9.3.1/bits/basic_string.h **** 
 111:/opt/gcc-arm-none-eabi-9-2020-q2/arm-none-eabi/include/c++/9.3.1/bits/basic_string.h ****     private:
 112:/opt/gcc-arm-none-eabi-9-2020-q2/arm-none-eabi/include/c++/9.3.1/bits/basic_string.h **** #if __cplusplus >= 201703L
 113:/opt/gcc-arm-none-eabi-9-2020-q2/arm-none-eabi/include/c++/9.3.1/bits/basic_string.h ****       // A helper type for avoiding boiler-plate.
 114:/opt/gcc-arm-none-eabi-9-2020-q2/arm-none-eabi/include/c++/9.3.1/bits/basic_string.h ****       typedef basic_string_view<_CharT, _Traits> __sv_type;
 115:/opt/gcc-arm-none-eabi-9-2020-q2/arm-none-eabi/include/c++/9.3.1/bits/basic_string.h **** 
 116:/opt/gcc-arm-none-eabi-9-2020-q2/arm-none-eabi/include/c++/9.3.1/bits/basic_string.h ****       template<typename _Tp, typename _Res>
 117:/opt/gcc-arm-none-eabi-9-2020-q2/arm-none-eabi/include/c++/9.3.1/bits/basic_string.h **** 	using _If_sv = enable_if_t<
 118:/opt/gcc-arm-none-eabi-9-2020-q2/arm-none-eabi/include/c++/9.3.1/bits/basic_string.h **** 	  __and_<is_convertible<const _Tp&, __sv_type>,
 119:/opt/gcc-arm-none-eabi-9-2020-q2/arm-none-eabi/include/c++/9.3.1/bits/basic_string.h **** 		 __not_<is_convertible<const _Tp*, const basic_string*>>,
 120:/opt/gcc-arm-none-eabi-9-2020-q2/arm-none-eabi/include/c++/9.3.1/bits/basic_string.h **** 		 __not_<is_convertible<const _Tp&, const _CharT*>>>::value,
 121:/opt/gcc-arm-none-eabi-9-2020-q2/arm-none-eabi/include/c++/9.3.1/bits/basic_string.h **** 	  _Res>;
 122:/opt/gcc-arm-none-eabi-9-2020-q2/arm-none-eabi/include/c++/9.3.1/bits/basic_string.h **** 
 123:/opt/gcc-arm-none-eabi-9-2020-q2/arm-none-eabi/include/c++/9.3.1/bits/basic_string.h ****       // Allows an implicit conversion to __sv_type.
 124:/opt/gcc-arm-none-eabi-9-2020-q2/arm-none-eabi/include/c++/9.3.1/bits/basic_string.h ****       static __sv_type
 125:/opt/gcc-arm-none-eabi-9-2020-q2/arm-none-eabi/include/c++/9.3.1/bits/basic_string.h ****       _S_to_string_view(__sv_type __svt) noexcept
 126:/opt/gcc-arm-none-eabi-9-2020-q2/arm-none-eabi/include/c++/9.3.1/bits/basic_string.h ****       { return __svt; }
 127:/opt/gcc-arm-none-eabi-9-2020-q2/arm-none-eabi/include/c++/9.3.1/bits/basic_string.h **** 
 128:/opt/gcc-arm-none-eabi-9-2020-q2/arm-none-eabi/include/c++/9.3.1/bits/basic_string.h ****       // Wraps a string_view by explicit conversion and thus
 129:/opt/gcc-arm-none-eabi-9-2020-q2/arm-none-eabi/include/c++/9.3.1/bits/basic_string.h ****       // allows to add an internal constructor that does not
 130:/opt/gcc-arm-none-eabi-9-2020-q2/arm-none-eabi/include/c++/9.3.1/bits/basic_string.h ****       // participate in overload resolution when a string_view
 131:/opt/gcc-arm-none-eabi-9-2020-q2/arm-none-eabi/include/c++/9.3.1/bits/basic_string.h ****       // is provided.
 132:/opt/gcc-arm-none-eabi-9-2020-q2/arm-none-eabi/include/c++/9.3.1/bits/basic_string.h ****       struct __sv_wrapper
 133:/opt/gcc-arm-none-eabi-9-2020-q2/arm-none-eabi/include/c++/9.3.1/bits/basic_string.h ****       {
 134:/opt/gcc-arm-none-eabi-9-2020-q2/arm-none-eabi/include/c++/9.3.1/bits/basic_string.h **** 	explicit __sv_wrapper(__sv_type __sv) noexcept : _M_sv(__sv) { }
 135:/opt/gcc-arm-none-eabi-9-2020-q2/arm-none-eabi/include/c++/9.3.1/bits/basic_string.h **** 	__sv_type _M_sv;
 136:/opt/gcc-arm-none-eabi-9-2020-q2/arm-none-eabi/include/c++/9.3.1/bits/basic_string.h ****       };
 137:/opt/gcc-arm-none-eabi-9-2020-q2/arm-none-eabi/include/c++/9.3.1/bits/basic_string.h **** 
 138:/opt/gcc-arm-none-eabi-9-2020-q2/arm-none-eabi/include/c++/9.3.1/bits/basic_string.h ****       /**
 139:/opt/gcc-arm-none-eabi-9-2020-q2/arm-none-eabi/include/c++/9.3.1/bits/basic_string.h ****        *  @brief  Only internally used: Construct string from a string view
 140:/opt/gcc-arm-none-eabi-9-2020-q2/arm-none-eabi/include/c++/9.3.1/bits/basic_string.h ****        *          wrapper.
 141:/opt/gcc-arm-none-eabi-9-2020-q2/arm-none-eabi/include/c++/9.3.1/bits/basic_string.h ****        *  @param  __svw  string view wrapper.
 142:/opt/gcc-arm-none-eabi-9-2020-q2/arm-none-eabi/include/c++/9.3.1/bits/basic_string.h ****        *  @param  __a  Allocator to use.
 143:/opt/gcc-arm-none-eabi-9-2020-q2/arm-none-eabi/include/c++/9.3.1/bits/basic_string.h ****        */
 144:/opt/gcc-arm-none-eabi-9-2020-q2/arm-none-eabi/include/c++/9.3.1/bits/basic_string.h ****       explicit
 145:/opt/gcc-arm-none-eabi-9-2020-q2/arm-none-eabi/include/c++/9.3.1/bits/basic_string.h ****       basic_string(__sv_wrapper __svw, const _Alloc& __a)
 146:/opt/gcc-arm-none-eabi-9-2020-q2/arm-none-eabi/include/c++/9.3.1/bits/basic_string.h ****       : basic_string(__svw._M_sv.data(), __svw._M_sv.size(), __a) { }
 147:/opt/gcc-arm-none-eabi-9-2020-q2/arm-none-eabi/include/c++/9.3.1/bits/basic_string.h **** #endif
 148:/opt/gcc-arm-none-eabi-9-2020-q2/arm-none-eabi/include/c++/9.3.1/bits/basic_string.h **** 
 149:/opt/gcc-arm-none-eabi-9-2020-q2/arm-none-eabi/include/c++/9.3.1/bits/basic_string.h ****       // Use empty-base optimization: http://www.cantrip.org/emptyopt.html
 150:/opt/gcc-arm-none-eabi-9-2020-q2/arm-none-eabi/include/c++/9.3.1/bits/basic_string.h ****       struct _Alloc_hider : allocator_type // TODO check __is_final
 151:/opt/gcc-arm-none-eabi-9-2020-q2/arm-none-eabi/include/c++/9.3.1/bits/basic_string.h ****       {
 152:/opt/gcc-arm-none-eabi-9-2020-q2/arm-none-eabi/include/c++/9.3.1/bits/basic_string.h **** #if __cplusplus < 201103L
 153:/opt/gcc-arm-none-eabi-9-2020-q2/arm-none-eabi/include/c++/9.3.1/bits/basic_string.h **** 	_Alloc_hider(pointer __dat, const _Alloc& __a = _Alloc())
 154:/opt/gcc-arm-none-eabi-9-2020-q2/arm-none-eabi/include/c++/9.3.1/bits/basic_string.h **** 	: allocator_type(__a), _M_p(__dat) { }
 155:/opt/gcc-arm-none-eabi-9-2020-q2/arm-none-eabi/include/c++/9.3.1/bits/basic_string.h **** #else
 156:/opt/gcc-arm-none-eabi-9-2020-q2/arm-none-eabi/include/c++/9.3.1/bits/basic_string.h **** 	_Alloc_hider(pointer __dat, const _Alloc& __a)
 157:/opt/gcc-arm-none-eabi-9-2020-q2/arm-none-eabi/include/c++/9.3.1/bits/basic_string.h **** 	: allocator_type(__a), _M_p(__dat) { }
 158:/opt/gcc-arm-none-eabi-9-2020-q2/arm-none-eabi/include/c++/9.3.1/bits/basic_string.h **** 
 159:/opt/gcc-arm-none-eabi-9-2020-q2/arm-none-eabi/include/c++/9.3.1/bits/basic_string.h **** 	_Alloc_hider(pointer __dat, _Alloc&& __a = _Alloc())
ARM GAS  /tmp/ccSnm6QV.s 			page 16


 160:/opt/gcc-arm-none-eabi-9-2020-q2/arm-none-eabi/include/c++/9.3.1/bits/basic_string.h **** 	: allocator_type(std::move(__a)), _M_p(__dat) { }
 161:/opt/gcc-arm-none-eabi-9-2020-q2/arm-none-eabi/include/c++/9.3.1/bits/basic_string.h **** #endif
 162:/opt/gcc-arm-none-eabi-9-2020-q2/arm-none-eabi/include/c++/9.3.1/bits/basic_string.h **** 
 163:/opt/gcc-arm-none-eabi-9-2020-q2/arm-none-eabi/include/c++/9.3.1/bits/basic_string.h **** 	pointer _M_p; // The actual data.
 164:/opt/gcc-arm-none-eabi-9-2020-q2/arm-none-eabi/include/c++/9.3.1/bits/basic_string.h ****       };
 165:/opt/gcc-arm-none-eabi-9-2020-q2/arm-none-eabi/include/c++/9.3.1/bits/basic_string.h **** 
 166:/opt/gcc-arm-none-eabi-9-2020-q2/arm-none-eabi/include/c++/9.3.1/bits/basic_string.h ****       _Alloc_hider	_M_dataplus;
 167:/opt/gcc-arm-none-eabi-9-2020-q2/arm-none-eabi/include/c++/9.3.1/bits/basic_string.h ****       size_type		_M_string_length;
 168:/opt/gcc-arm-none-eabi-9-2020-q2/arm-none-eabi/include/c++/9.3.1/bits/basic_string.h **** 
 169:/opt/gcc-arm-none-eabi-9-2020-q2/arm-none-eabi/include/c++/9.3.1/bits/basic_string.h ****       enum { _S_local_capacity = 15 / sizeof(_CharT) };
 170:/opt/gcc-arm-none-eabi-9-2020-q2/arm-none-eabi/include/c++/9.3.1/bits/basic_string.h **** 
 171:/opt/gcc-arm-none-eabi-9-2020-q2/arm-none-eabi/include/c++/9.3.1/bits/basic_string.h ****       union
 172:/opt/gcc-arm-none-eabi-9-2020-q2/arm-none-eabi/include/c++/9.3.1/bits/basic_string.h ****       {
 173:/opt/gcc-arm-none-eabi-9-2020-q2/arm-none-eabi/include/c++/9.3.1/bits/basic_string.h **** 	_CharT           _M_local_buf[_S_local_capacity + 1];
 174:/opt/gcc-arm-none-eabi-9-2020-q2/arm-none-eabi/include/c++/9.3.1/bits/basic_string.h **** 	size_type        _M_allocated_capacity;
 175:/opt/gcc-arm-none-eabi-9-2020-q2/arm-none-eabi/include/c++/9.3.1/bits/basic_string.h ****       };
 176:/opt/gcc-arm-none-eabi-9-2020-q2/arm-none-eabi/include/c++/9.3.1/bits/basic_string.h **** 
 177:/opt/gcc-arm-none-eabi-9-2020-q2/arm-none-eabi/include/c++/9.3.1/bits/basic_string.h ****       void
 178:/opt/gcc-arm-none-eabi-9-2020-q2/arm-none-eabi/include/c++/9.3.1/bits/basic_string.h ****       _M_data(pointer __p)
 179:/opt/gcc-arm-none-eabi-9-2020-q2/arm-none-eabi/include/c++/9.3.1/bits/basic_string.h ****       { _M_dataplus._M_p = __p; }
 180:/opt/gcc-arm-none-eabi-9-2020-q2/arm-none-eabi/include/c++/9.3.1/bits/basic_string.h **** 
 181:/opt/gcc-arm-none-eabi-9-2020-q2/arm-none-eabi/include/c++/9.3.1/bits/basic_string.h ****       void
 182:/opt/gcc-arm-none-eabi-9-2020-q2/arm-none-eabi/include/c++/9.3.1/bits/basic_string.h ****       _M_length(size_type __length)
 183:/opt/gcc-arm-none-eabi-9-2020-q2/arm-none-eabi/include/c++/9.3.1/bits/basic_string.h ****       { _M_string_length = __length; }
 184:/opt/gcc-arm-none-eabi-9-2020-q2/arm-none-eabi/include/c++/9.3.1/bits/basic_string.h **** 
 185:/opt/gcc-arm-none-eabi-9-2020-q2/arm-none-eabi/include/c++/9.3.1/bits/basic_string.h ****       pointer
 186:/opt/gcc-arm-none-eabi-9-2020-q2/arm-none-eabi/include/c++/9.3.1/bits/basic_string.h ****       _M_data() const
 284              		.loc 4 186 7 is_stmt 1 view .LVU53
 285              	.LBB1136:
 187:/opt/gcc-arm-none-eabi-9-2020-q2/arm-none-eabi/include/c++/9.3.1/bits/basic_string.h ****       { return _M_dataplus._M_p; }
 286              		.loc 4 187 28 is_stmt 0 view .LVU54
 287 0012 2868     		ldr	r0, [r5]
 288              	.LVL24:
 289              		.loc 4 187 28 view .LVU55
 290              	.LBE1136:
 291              	.LBE1135:
 292              	.LBB1137:
 293              	.LBI1137:
 188:/opt/gcc-arm-none-eabi-9-2020-q2/arm-none-eabi/include/c++/9.3.1/bits/basic_string.h **** 
 189:/opt/gcc-arm-none-eabi-9-2020-q2/arm-none-eabi/include/c++/9.3.1/bits/basic_string.h ****       pointer
 190:/opt/gcc-arm-none-eabi-9-2020-q2/arm-none-eabi/include/c++/9.3.1/bits/basic_string.h ****       _M_local_data()
 191:/opt/gcc-arm-none-eabi-9-2020-q2/arm-none-eabi/include/c++/9.3.1/bits/basic_string.h ****       {
 192:/opt/gcc-arm-none-eabi-9-2020-q2/arm-none-eabi/include/c++/9.3.1/bits/basic_string.h **** #if __cplusplus >= 201103L
 193:/opt/gcc-arm-none-eabi-9-2020-q2/arm-none-eabi/include/c++/9.3.1/bits/basic_string.h **** 	return std::pointer_traits<pointer>::pointer_to(*_M_local_buf);
 194:/opt/gcc-arm-none-eabi-9-2020-q2/arm-none-eabi/include/c++/9.3.1/bits/basic_string.h **** #else
 195:/opt/gcc-arm-none-eabi-9-2020-q2/arm-none-eabi/include/c++/9.3.1/bits/basic_string.h **** 	return pointer(_M_local_buf);
 196:/opt/gcc-arm-none-eabi-9-2020-q2/arm-none-eabi/include/c++/9.3.1/bits/basic_string.h **** #endif
 197:/opt/gcc-arm-none-eabi-9-2020-q2/arm-none-eabi/include/c++/9.3.1/bits/basic_string.h ****       }
 198:/opt/gcc-arm-none-eabi-9-2020-q2/arm-none-eabi/include/c++/9.3.1/bits/basic_string.h **** 
 199:/opt/gcc-arm-none-eabi-9-2020-q2/arm-none-eabi/include/c++/9.3.1/bits/basic_string.h ****       const_pointer
 200:/opt/gcc-arm-none-eabi-9-2020-q2/arm-none-eabi/include/c++/9.3.1/bits/basic_string.h ****       _M_local_data() const
 201:/opt/gcc-arm-none-eabi-9-2020-q2/arm-none-eabi/include/c++/9.3.1/bits/basic_string.h ****       {
 202:/opt/gcc-arm-none-eabi-9-2020-q2/arm-none-eabi/include/c++/9.3.1/bits/basic_string.h **** #if __cplusplus >= 201103L
 203:/opt/gcc-arm-none-eabi-9-2020-q2/arm-none-eabi/include/c++/9.3.1/bits/basic_string.h **** 	return std::pointer_traits<const_pointer>::pointer_to(*_M_local_buf);
 204:/opt/gcc-arm-none-eabi-9-2020-q2/arm-none-eabi/include/c++/9.3.1/bits/basic_string.h **** #else
 205:/opt/gcc-arm-none-eabi-9-2020-q2/arm-none-eabi/include/c++/9.3.1/bits/basic_string.h **** 	return const_pointer(_M_local_buf);
 206:/opt/gcc-arm-none-eabi-9-2020-q2/arm-none-eabi/include/c++/9.3.1/bits/basic_string.h **** #endif
ARM GAS  /tmp/ccSnm6QV.s 			page 17


 207:/opt/gcc-arm-none-eabi-9-2020-q2/arm-none-eabi/include/c++/9.3.1/bits/basic_string.h ****       }
 208:/opt/gcc-arm-none-eabi-9-2020-q2/arm-none-eabi/include/c++/9.3.1/bits/basic_string.h **** 
 209:/opt/gcc-arm-none-eabi-9-2020-q2/arm-none-eabi/include/c++/9.3.1/bits/basic_string.h ****       void
 210:/opt/gcc-arm-none-eabi-9-2020-q2/arm-none-eabi/include/c++/9.3.1/bits/basic_string.h ****       _M_capacity(size_type __capacity)
 211:/opt/gcc-arm-none-eabi-9-2020-q2/arm-none-eabi/include/c++/9.3.1/bits/basic_string.h ****       { _M_allocated_capacity = __capacity; }
 212:/opt/gcc-arm-none-eabi-9-2020-q2/arm-none-eabi/include/c++/9.3.1/bits/basic_string.h **** 
 213:/opt/gcc-arm-none-eabi-9-2020-q2/arm-none-eabi/include/c++/9.3.1/bits/basic_string.h ****       void
 214:/opt/gcc-arm-none-eabi-9-2020-q2/arm-none-eabi/include/c++/9.3.1/bits/basic_string.h ****       _M_set_length(size_type __n)
 215:/opt/gcc-arm-none-eabi-9-2020-q2/arm-none-eabi/include/c++/9.3.1/bits/basic_string.h ****       {
 216:/opt/gcc-arm-none-eabi-9-2020-q2/arm-none-eabi/include/c++/9.3.1/bits/basic_string.h **** 	_M_length(__n);
 217:/opt/gcc-arm-none-eabi-9-2020-q2/arm-none-eabi/include/c++/9.3.1/bits/basic_string.h **** 	traits_type::assign(_M_data()[__n], _CharT());
 218:/opt/gcc-arm-none-eabi-9-2020-q2/arm-none-eabi/include/c++/9.3.1/bits/basic_string.h ****       }
 219:/opt/gcc-arm-none-eabi-9-2020-q2/arm-none-eabi/include/c++/9.3.1/bits/basic_string.h **** 
 220:/opt/gcc-arm-none-eabi-9-2020-q2/arm-none-eabi/include/c++/9.3.1/bits/basic_string.h ****       bool
 221:/opt/gcc-arm-none-eabi-9-2020-q2/arm-none-eabi/include/c++/9.3.1/bits/basic_string.h ****       _M_is_local() const
 222:/opt/gcc-arm-none-eabi-9-2020-q2/arm-none-eabi/include/c++/9.3.1/bits/basic_string.h ****       { return _M_data() == _M_local_data(); }
 223:/opt/gcc-arm-none-eabi-9-2020-q2/arm-none-eabi/include/c++/9.3.1/bits/basic_string.h **** 
 224:/opt/gcc-arm-none-eabi-9-2020-q2/arm-none-eabi/include/c++/9.3.1/bits/basic_string.h ****       // Create & Destroy
 225:/opt/gcc-arm-none-eabi-9-2020-q2/arm-none-eabi/include/c++/9.3.1/bits/basic_string.h ****       pointer
 226:/opt/gcc-arm-none-eabi-9-2020-q2/arm-none-eabi/include/c++/9.3.1/bits/basic_string.h ****       _M_create(size_type&, size_type);
 227:/opt/gcc-arm-none-eabi-9-2020-q2/arm-none-eabi/include/c++/9.3.1/bits/basic_string.h **** 
 228:/opt/gcc-arm-none-eabi-9-2020-q2/arm-none-eabi/include/c++/9.3.1/bits/basic_string.h ****       void
 229:/opt/gcc-arm-none-eabi-9-2020-q2/arm-none-eabi/include/c++/9.3.1/bits/basic_string.h ****       _M_dispose()
 230:/opt/gcc-arm-none-eabi-9-2020-q2/arm-none-eabi/include/c++/9.3.1/bits/basic_string.h ****       {
 231:/opt/gcc-arm-none-eabi-9-2020-q2/arm-none-eabi/include/c++/9.3.1/bits/basic_string.h **** 	if (!_M_is_local())
 232:/opt/gcc-arm-none-eabi-9-2020-q2/arm-none-eabi/include/c++/9.3.1/bits/basic_string.h **** 	  _M_destroy(_M_allocated_capacity);
 233:/opt/gcc-arm-none-eabi-9-2020-q2/arm-none-eabi/include/c++/9.3.1/bits/basic_string.h ****       }
 234:/opt/gcc-arm-none-eabi-9-2020-q2/arm-none-eabi/include/c++/9.3.1/bits/basic_string.h **** 
 235:/opt/gcc-arm-none-eabi-9-2020-q2/arm-none-eabi/include/c++/9.3.1/bits/basic_string.h ****       void
 236:/opt/gcc-arm-none-eabi-9-2020-q2/arm-none-eabi/include/c++/9.3.1/bits/basic_string.h ****       _M_destroy(size_type __size) throw()
 237:/opt/gcc-arm-none-eabi-9-2020-q2/arm-none-eabi/include/c++/9.3.1/bits/basic_string.h ****       { _Alloc_traits::deallocate(_M_get_allocator(), _M_data(), __size + 1); }
 238:/opt/gcc-arm-none-eabi-9-2020-q2/arm-none-eabi/include/c++/9.3.1/bits/basic_string.h **** 
 239:/opt/gcc-arm-none-eabi-9-2020-q2/arm-none-eabi/include/c++/9.3.1/bits/basic_string.h ****       // _M_construct_aux is used to implement the 21.3.1 para 15 which
 240:/opt/gcc-arm-none-eabi-9-2020-q2/arm-none-eabi/include/c++/9.3.1/bits/basic_string.h ****       // requires special behaviour if _InIterator is an integral type
 241:/opt/gcc-arm-none-eabi-9-2020-q2/arm-none-eabi/include/c++/9.3.1/bits/basic_string.h ****       template<typename _InIterator>
 242:/opt/gcc-arm-none-eabi-9-2020-q2/arm-none-eabi/include/c++/9.3.1/bits/basic_string.h ****         void
 243:/opt/gcc-arm-none-eabi-9-2020-q2/arm-none-eabi/include/c++/9.3.1/bits/basic_string.h ****         _M_construct_aux(_InIterator __beg, _InIterator __end,
 244:/opt/gcc-arm-none-eabi-9-2020-q2/arm-none-eabi/include/c++/9.3.1/bits/basic_string.h **** 			 std::__false_type)
 245:/opt/gcc-arm-none-eabi-9-2020-q2/arm-none-eabi/include/c++/9.3.1/bits/basic_string.h **** 	{
 246:/opt/gcc-arm-none-eabi-9-2020-q2/arm-none-eabi/include/c++/9.3.1/bits/basic_string.h ****           typedef typename iterator_traits<_InIterator>::iterator_category _Tag;
 247:/opt/gcc-arm-none-eabi-9-2020-q2/arm-none-eabi/include/c++/9.3.1/bits/basic_string.h ****           _M_construct(__beg, __end, _Tag());
 248:/opt/gcc-arm-none-eabi-9-2020-q2/arm-none-eabi/include/c++/9.3.1/bits/basic_string.h **** 	}
 249:/opt/gcc-arm-none-eabi-9-2020-q2/arm-none-eabi/include/c++/9.3.1/bits/basic_string.h **** 
 250:/opt/gcc-arm-none-eabi-9-2020-q2/arm-none-eabi/include/c++/9.3.1/bits/basic_string.h ****       // _GLIBCXX_RESOLVE_LIB_DEFECTS
 251:/opt/gcc-arm-none-eabi-9-2020-q2/arm-none-eabi/include/c++/9.3.1/bits/basic_string.h ****       // 438. Ambiguity in the "do the right thing" clause
 252:/opt/gcc-arm-none-eabi-9-2020-q2/arm-none-eabi/include/c++/9.3.1/bits/basic_string.h ****       template<typename _Integer>
 253:/opt/gcc-arm-none-eabi-9-2020-q2/arm-none-eabi/include/c++/9.3.1/bits/basic_string.h ****         void
 254:/opt/gcc-arm-none-eabi-9-2020-q2/arm-none-eabi/include/c++/9.3.1/bits/basic_string.h ****         _M_construct_aux(_Integer __beg, _Integer __end, std::__true_type)
 255:/opt/gcc-arm-none-eabi-9-2020-q2/arm-none-eabi/include/c++/9.3.1/bits/basic_string.h **** 	{ _M_construct_aux_2(static_cast<size_type>(__beg), __end); }
 256:/opt/gcc-arm-none-eabi-9-2020-q2/arm-none-eabi/include/c++/9.3.1/bits/basic_string.h **** 
 257:/opt/gcc-arm-none-eabi-9-2020-q2/arm-none-eabi/include/c++/9.3.1/bits/basic_string.h ****       void
 258:/opt/gcc-arm-none-eabi-9-2020-q2/arm-none-eabi/include/c++/9.3.1/bits/basic_string.h ****       _M_construct_aux_2(size_type __req, _CharT __c)
 259:/opt/gcc-arm-none-eabi-9-2020-q2/arm-none-eabi/include/c++/9.3.1/bits/basic_string.h ****       { _M_construct(__req, __c); }
 260:/opt/gcc-arm-none-eabi-9-2020-q2/arm-none-eabi/include/c++/9.3.1/bits/basic_string.h **** 
 261:/opt/gcc-arm-none-eabi-9-2020-q2/arm-none-eabi/include/c++/9.3.1/bits/basic_string.h ****       template<typename _InIterator>
 262:/opt/gcc-arm-none-eabi-9-2020-q2/arm-none-eabi/include/c++/9.3.1/bits/basic_string.h ****         void
 263:/opt/gcc-arm-none-eabi-9-2020-q2/arm-none-eabi/include/c++/9.3.1/bits/basic_string.h ****         _M_construct(_InIterator __beg, _InIterator __end)
ARM GAS  /tmp/ccSnm6QV.s 			page 18


 264:/opt/gcc-arm-none-eabi-9-2020-q2/arm-none-eabi/include/c++/9.3.1/bits/basic_string.h **** 	{
 265:/opt/gcc-arm-none-eabi-9-2020-q2/arm-none-eabi/include/c++/9.3.1/bits/basic_string.h **** 	  typedef typename std::__is_integer<_InIterator>::__type _Integral;
 266:/opt/gcc-arm-none-eabi-9-2020-q2/arm-none-eabi/include/c++/9.3.1/bits/basic_string.h **** 	  _M_construct_aux(__beg, __end, _Integral());
 267:/opt/gcc-arm-none-eabi-9-2020-q2/arm-none-eabi/include/c++/9.3.1/bits/basic_string.h ****         }
 268:/opt/gcc-arm-none-eabi-9-2020-q2/arm-none-eabi/include/c++/9.3.1/bits/basic_string.h **** 
 269:/opt/gcc-arm-none-eabi-9-2020-q2/arm-none-eabi/include/c++/9.3.1/bits/basic_string.h ****       // For Input Iterators, used in istreambuf_iterators, etc.
 270:/opt/gcc-arm-none-eabi-9-2020-q2/arm-none-eabi/include/c++/9.3.1/bits/basic_string.h ****       template<typename _InIterator>
 271:/opt/gcc-arm-none-eabi-9-2020-q2/arm-none-eabi/include/c++/9.3.1/bits/basic_string.h ****         void
 272:/opt/gcc-arm-none-eabi-9-2020-q2/arm-none-eabi/include/c++/9.3.1/bits/basic_string.h ****         _M_construct(_InIterator __beg, _InIterator __end,
 273:/opt/gcc-arm-none-eabi-9-2020-q2/arm-none-eabi/include/c++/9.3.1/bits/basic_string.h **** 		     std::input_iterator_tag);
 274:/opt/gcc-arm-none-eabi-9-2020-q2/arm-none-eabi/include/c++/9.3.1/bits/basic_string.h **** 
 275:/opt/gcc-arm-none-eabi-9-2020-q2/arm-none-eabi/include/c++/9.3.1/bits/basic_string.h ****       // For forward_iterators up to random_access_iterators, used for
 276:/opt/gcc-arm-none-eabi-9-2020-q2/arm-none-eabi/include/c++/9.3.1/bits/basic_string.h ****       // string::iterator, _CharT*, etc.
 277:/opt/gcc-arm-none-eabi-9-2020-q2/arm-none-eabi/include/c++/9.3.1/bits/basic_string.h ****       template<typename _FwdIterator>
 278:/opt/gcc-arm-none-eabi-9-2020-q2/arm-none-eabi/include/c++/9.3.1/bits/basic_string.h ****         void
 279:/opt/gcc-arm-none-eabi-9-2020-q2/arm-none-eabi/include/c++/9.3.1/bits/basic_string.h ****         _M_construct(_FwdIterator __beg, _FwdIterator __end,
 280:/opt/gcc-arm-none-eabi-9-2020-q2/arm-none-eabi/include/c++/9.3.1/bits/basic_string.h **** 		     std::forward_iterator_tag);
 281:/opt/gcc-arm-none-eabi-9-2020-q2/arm-none-eabi/include/c++/9.3.1/bits/basic_string.h **** 
 282:/opt/gcc-arm-none-eabi-9-2020-q2/arm-none-eabi/include/c++/9.3.1/bits/basic_string.h ****       void
 283:/opt/gcc-arm-none-eabi-9-2020-q2/arm-none-eabi/include/c++/9.3.1/bits/basic_string.h ****       _M_construct(size_type __req, _CharT __c);
 284:/opt/gcc-arm-none-eabi-9-2020-q2/arm-none-eabi/include/c++/9.3.1/bits/basic_string.h **** 
 285:/opt/gcc-arm-none-eabi-9-2020-q2/arm-none-eabi/include/c++/9.3.1/bits/basic_string.h ****       allocator_type&
 286:/opt/gcc-arm-none-eabi-9-2020-q2/arm-none-eabi/include/c++/9.3.1/bits/basic_string.h ****       _M_get_allocator()
 287:/opt/gcc-arm-none-eabi-9-2020-q2/arm-none-eabi/include/c++/9.3.1/bits/basic_string.h ****       { return _M_dataplus; }
 288:/opt/gcc-arm-none-eabi-9-2020-q2/arm-none-eabi/include/c++/9.3.1/bits/basic_string.h **** 
 289:/opt/gcc-arm-none-eabi-9-2020-q2/arm-none-eabi/include/c++/9.3.1/bits/basic_string.h ****       const allocator_type&
 290:/opt/gcc-arm-none-eabi-9-2020-q2/arm-none-eabi/include/c++/9.3.1/bits/basic_string.h ****       _M_get_allocator() const
 291:/opt/gcc-arm-none-eabi-9-2020-q2/arm-none-eabi/include/c++/9.3.1/bits/basic_string.h ****       { return _M_dataplus; }
 292:/opt/gcc-arm-none-eabi-9-2020-q2/arm-none-eabi/include/c++/9.3.1/bits/basic_string.h **** 
 293:/opt/gcc-arm-none-eabi-9-2020-q2/arm-none-eabi/include/c++/9.3.1/bits/basic_string.h ****     private:
 294:/opt/gcc-arm-none-eabi-9-2020-q2/arm-none-eabi/include/c++/9.3.1/bits/basic_string.h **** 
 295:/opt/gcc-arm-none-eabi-9-2020-q2/arm-none-eabi/include/c++/9.3.1/bits/basic_string.h **** #ifdef _GLIBCXX_DISAMBIGUATE_REPLACE_INST
 296:/opt/gcc-arm-none-eabi-9-2020-q2/arm-none-eabi/include/c++/9.3.1/bits/basic_string.h ****       // The explicit instantiations in misc-inst.cc require this due to
 297:/opt/gcc-arm-none-eabi-9-2020-q2/arm-none-eabi/include/c++/9.3.1/bits/basic_string.h ****       // https://gcc.gnu.org/bugzilla/show_bug.cgi?id=64063
 298:/opt/gcc-arm-none-eabi-9-2020-q2/arm-none-eabi/include/c++/9.3.1/bits/basic_string.h ****       template<typename _Tp, bool _Requires =
 299:/opt/gcc-arm-none-eabi-9-2020-q2/arm-none-eabi/include/c++/9.3.1/bits/basic_string.h **** 	       !__are_same<_Tp, _CharT*>::__value
 300:/opt/gcc-arm-none-eabi-9-2020-q2/arm-none-eabi/include/c++/9.3.1/bits/basic_string.h **** 	       && !__are_same<_Tp, const _CharT*>::__value
 301:/opt/gcc-arm-none-eabi-9-2020-q2/arm-none-eabi/include/c++/9.3.1/bits/basic_string.h **** 	       && !__are_same<_Tp, iterator>::__value
 302:/opt/gcc-arm-none-eabi-9-2020-q2/arm-none-eabi/include/c++/9.3.1/bits/basic_string.h **** 	       && !__are_same<_Tp, const_iterator>::__value>
 303:/opt/gcc-arm-none-eabi-9-2020-q2/arm-none-eabi/include/c++/9.3.1/bits/basic_string.h **** 	struct __enable_if_not_native_iterator
 304:/opt/gcc-arm-none-eabi-9-2020-q2/arm-none-eabi/include/c++/9.3.1/bits/basic_string.h **** 	{ typedef basic_string& __type; };
 305:/opt/gcc-arm-none-eabi-9-2020-q2/arm-none-eabi/include/c++/9.3.1/bits/basic_string.h ****       template<typename _Tp>
 306:/opt/gcc-arm-none-eabi-9-2020-q2/arm-none-eabi/include/c++/9.3.1/bits/basic_string.h **** 	struct __enable_if_not_native_iterator<_Tp, false> { };
 307:/opt/gcc-arm-none-eabi-9-2020-q2/arm-none-eabi/include/c++/9.3.1/bits/basic_string.h **** #endif
 308:/opt/gcc-arm-none-eabi-9-2020-q2/arm-none-eabi/include/c++/9.3.1/bits/basic_string.h **** 
 309:/opt/gcc-arm-none-eabi-9-2020-q2/arm-none-eabi/include/c++/9.3.1/bits/basic_string.h ****       size_type
 310:/opt/gcc-arm-none-eabi-9-2020-q2/arm-none-eabi/include/c++/9.3.1/bits/basic_string.h ****       _M_check(size_type __pos, const char* __s) const
 311:/opt/gcc-arm-none-eabi-9-2020-q2/arm-none-eabi/include/c++/9.3.1/bits/basic_string.h ****       {
 312:/opt/gcc-arm-none-eabi-9-2020-q2/arm-none-eabi/include/c++/9.3.1/bits/basic_string.h **** 	if (__pos > this->size())
 313:/opt/gcc-arm-none-eabi-9-2020-q2/arm-none-eabi/include/c++/9.3.1/bits/basic_string.h **** 	  __throw_out_of_range_fmt(__N("%s: __pos (which is %zu) > "
 314:/opt/gcc-arm-none-eabi-9-2020-q2/arm-none-eabi/include/c++/9.3.1/bits/basic_string.h **** 				       "this->size() (which is %zu)"),
 315:/opt/gcc-arm-none-eabi-9-2020-q2/arm-none-eabi/include/c++/9.3.1/bits/basic_string.h **** 				   __s, __pos, this->size());
 316:/opt/gcc-arm-none-eabi-9-2020-q2/arm-none-eabi/include/c++/9.3.1/bits/basic_string.h **** 	return __pos;
 317:/opt/gcc-arm-none-eabi-9-2020-q2/arm-none-eabi/include/c++/9.3.1/bits/basic_string.h ****       }
 318:/opt/gcc-arm-none-eabi-9-2020-q2/arm-none-eabi/include/c++/9.3.1/bits/basic_string.h **** 
 319:/opt/gcc-arm-none-eabi-9-2020-q2/arm-none-eabi/include/c++/9.3.1/bits/basic_string.h ****       void
 320:/opt/gcc-arm-none-eabi-9-2020-q2/arm-none-eabi/include/c++/9.3.1/bits/basic_string.h ****       _M_check_length(size_type __n1, size_type __n2, const char* __s) const
ARM GAS  /tmp/ccSnm6QV.s 			page 19


 321:/opt/gcc-arm-none-eabi-9-2020-q2/arm-none-eabi/include/c++/9.3.1/bits/basic_string.h ****       {
 322:/opt/gcc-arm-none-eabi-9-2020-q2/arm-none-eabi/include/c++/9.3.1/bits/basic_string.h **** 	if (this->max_size() - (this->size() - __n1) < __n2)
 323:/opt/gcc-arm-none-eabi-9-2020-q2/arm-none-eabi/include/c++/9.3.1/bits/basic_string.h **** 	  __throw_length_error(__N(__s));
 324:/opt/gcc-arm-none-eabi-9-2020-q2/arm-none-eabi/include/c++/9.3.1/bits/basic_string.h ****       }
 325:/opt/gcc-arm-none-eabi-9-2020-q2/arm-none-eabi/include/c++/9.3.1/bits/basic_string.h **** 
 326:/opt/gcc-arm-none-eabi-9-2020-q2/arm-none-eabi/include/c++/9.3.1/bits/basic_string.h **** 
 327:/opt/gcc-arm-none-eabi-9-2020-q2/arm-none-eabi/include/c++/9.3.1/bits/basic_string.h ****       // NB: _M_limit doesn't check for a bad __pos value.
 328:/opt/gcc-arm-none-eabi-9-2020-q2/arm-none-eabi/include/c++/9.3.1/bits/basic_string.h ****       size_type
 329:/opt/gcc-arm-none-eabi-9-2020-q2/arm-none-eabi/include/c++/9.3.1/bits/basic_string.h ****       _M_limit(size_type __pos, size_type __off) const _GLIBCXX_NOEXCEPT
 330:/opt/gcc-arm-none-eabi-9-2020-q2/arm-none-eabi/include/c++/9.3.1/bits/basic_string.h ****       {
 331:/opt/gcc-arm-none-eabi-9-2020-q2/arm-none-eabi/include/c++/9.3.1/bits/basic_string.h **** 	const bool __testoff =  __off < this->size() - __pos;
 332:/opt/gcc-arm-none-eabi-9-2020-q2/arm-none-eabi/include/c++/9.3.1/bits/basic_string.h **** 	return __testoff ? __off : this->size() - __pos;
 333:/opt/gcc-arm-none-eabi-9-2020-q2/arm-none-eabi/include/c++/9.3.1/bits/basic_string.h ****       }
 334:/opt/gcc-arm-none-eabi-9-2020-q2/arm-none-eabi/include/c++/9.3.1/bits/basic_string.h **** 
 335:/opt/gcc-arm-none-eabi-9-2020-q2/arm-none-eabi/include/c++/9.3.1/bits/basic_string.h ****       // True if _Rep and source do not overlap.
 336:/opt/gcc-arm-none-eabi-9-2020-q2/arm-none-eabi/include/c++/9.3.1/bits/basic_string.h ****       bool
 337:/opt/gcc-arm-none-eabi-9-2020-q2/arm-none-eabi/include/c++/9.3.1/bits/basic_string.h ****       _M_disjunct(const _CharT* __s) const _GLIBCXX_NOEXCEPT
 338:/opt/gcc-arm-none-eabi-9-2020-q2/arm-none-eabi/include/c++/9.3.1/bits/basic_string.h ****       {
 339:/opt/gcc-arm-none-eabi-9-2020-q2/arm-none-eabi/include/c++/9.3.1/bits/basic_string.h **** 	return (less<const _CharT*>()(__s, _M_data())
 340:/opt/gcc-arm-none-eabi-9-2020-q2/arm-none-eabi/include/c++/9.3.1/bits/basic_string.h **** 		|| less<const _CharT*>()(_M_data() + this->size(), __s));
 341:/opt/gcc-arm-none-eabi-9-2020-q2/arm-none-eabi/include/c++/9.3.1/bits/basic_string.h ****       }
 342:/opt/gcc-arm-none-eabi-9-2020-q2/arm-none-eabi/include/c++/9.3.1/bits/basic_string.h **** 
 343:/opt/gcc-arm-none-eabi-9-2020-q2/arm-none-eabi/include/c++/9.3.1/bits/basic_string.h ****       // When __n = 1 way faster than the general multichar
 344:/opt/gcc-arm-none-eabi-9-2020-q2/arm-none-eabi/include/c++/9.3.1/bits/basic_string.h ****       // traits_type::copy/move/assign.
 345:/opt/gcc-arm-none-eabi-9-2020-q2/arm-none-eabi/include/c++/9.3.1/bits/basic_string.h ****       static void
 346:/opt/gcc-arm-none-eabi-9-2020-q2/arm-none-eabi/include/c++/9.3.1/bits/basic_string.h ****       _S_copy(_CharT* __d, const _CharT* __s, size_type __n)
 347:/opt/gcc-arm-none-eabi-9-2020-q2/arm-none-eabi/include/c++/9.3.1/bits/basic_string.h ****       {
 348:/opt/gcc-arm-none-eabi-9-2020-q2/arm-none-eabi/include/c++/9.3.1/bits/basic_string.h **** 	if (__n == 1)
 349:/opt/gcc-arm-none-eabi-9-2020-q2/arm-none-eabi/include/c++/9.3.1/bits/basic_string.h **** 	  traits_type::assign(*__d, *__s);
 350:/opt/gcc-arm-none-eabi-9-2020-q2/arm-none-eabi/include/c++/9.3.1/bits/basic_string.h **** 	else
 351:/opt/gcc-arm-none-eabi-9-2020-q2/arm-none-eabi/include/c++/9.3.1/bits/basic_string.h **** 	  traits_type::copy(__d, __s, __n);
 352:/opt/gcc-arm-none-eabi-9-2020-q2/arm-none-eabi/include/c++/9.3.1/bits/basic_string.h ****       }
 353:/opt/gcc-arm-none-eabi-9-2020-q2/arm-none-eabi/include/c++/9.3.1/bits/basic_string.h **** 
 354:/opt/gcc-arm-none-eabi-9-2020-q2/arm-none-eabi/include/c++/9.3.1/bits/basic_string.h ****       static void
 355:/opt/gcc-arm-none-eabi-9-2020-q2/arm-none-eabi/include/c++/9.3.1/bits/basic_string.h ****       _S_move(_CharT* __d, const _CharT* __s, size_type __n)
 356:/opt/gcc-arm-none-eabi-9-2020-q2/arm-none-eabi/include/c++/9.3.1/bits/basic_string.h ****       {
 357:/opt/gcc-arm-none-eabi-9-2020-q2/arm-none-eabi/include/c++/9.3.1/bits/basic_string.h **** 	if (__n == 1)
 358:/opt/gcc-arm-none-eabi-9-2020-q2/arm-none-eabi/include/c++/9.3.1/bits/basic_string.h **** 	  traits_type::assign(*__d, *__s);
 359:/opt/gcc-arm-none-eabi-9-2020-q2/arm-none-eabi/include/c++/9.3.1/bits/basic_string.h **** 	else
 360:/opt/gcc-arm-none-eabi-9-2020-q2/arm-none-eabi/include/c++/9.3.1/bits/basic_string.h **** 	  traits_type::move(__d, __s, __n);
 361:/opt/gcc-arm-none-eabi-9-2020-q2/arm-none-eabi/include/c++/9.3.1/bits/basic_string.h ****       }
 362:/opt/gcc-arm-none-eabi-9-2020-q2/arm-none-eabi/include/c++/9.3.1/bits/basic_string.h **** 
 363:/opt/gcc-arm-none-eabi-9-2020-q2/arm-none-eabi/include/c++/9.3.1/bits/basic_string.h ****       static void
 364:/opt/gcc-arm-none-eabi-9-2020-q2/arm-none-eabi/include/c++/9.3.1/bits/basic_string.h ****       _S_assign(_CharT* __d, size_type __n, _CharT __c)
 365:/opt/gcc-arm-none-eabi-9-2020-q2/arm-none-eabi/include/c++/9.3.1/bits/basic_string.h ****       {
 366:/opt/gcc-arm-none-eabi-9-2020-q2/arm-none-eabi/include/c++/9.3.1/bits/basic_string.h **** 	if (__n == 1)
 367:/opt/gcc-arm-none-eabi-9-2020-q2/arm-none-eabi/include/c++/9.3.1/bits/basic_string.h **** 	  traits_type::assign(*__d, __c);
 368:/opt/gcc-arm-none-eabi-9-2020-q2/arm-none-eabi/include/c++/9.3.1/bits/basic_string.h **** 	else
 369:/opt/gcc-arm-none-eabi-9-2020-q2/arm-none-eabi/include/c++/9.3.1/bits/basic_string.h **** 	  traits_type::assign(__d, __n, __c);
 370:/opt/gcc-arm-none-eabi-9-2020-q2/arm-none-eabi/include/c++/9.3.1/bits/basic_string.h ****       }
 371:/opt/gcc-arm-none-eabi-9-2020-q2/arm-none-eabi/include/c++/9.3.1/bits/basic_string.h **** 
 372:/opt/gcc-arm-none-eabi-9-2020-q2/arm-none-eabi/include/c++/9.3.1/bits/basic_string.h ****       // _S_copy_chars is a separate template to permit specialization
 373:/opt/gcc-arm-none-eabi-9-2020-q2/arm-none-eabi/include/c++/9.3.1/bits/basic_string.h ****       // to optimize for the common case of pointers as iterators.
 374:/opt/gcc-arm-none-eabi-9-2020-q2/arm-none-eabi/include/c++/9.3.1/bits/basic_string.h ****       template<class _Iterator>
 375:/opt/gcc-arm-none-eabi-9-2020-q2/arm-none-eabi/include/c++/9.3.1/bits/basic_string.h ****         static void
 376:/opt/gcc-arm-none-eabi-9-2020-q2/arm-none-eabi/include/c++/9.3.1/bits/basic_string.h ****         _S_copy_chars(_CharT* __p, _Iterator __k1, _Iterator __k2)
 377:/opt/gcc-arm-none-eabi-9-2020-q2/arm-none-eabi/include/c++/9.3.1/bits/basic_string.h ****         {
ARM GAS  /tmp/ccSnm6QV.s 			page 20


 378:/opt/gcc-arm-none-eabi-9-2020-q2/arm-none-eabi/include/c++/9.3.1/bits/basic_string.h **** 	  for (; __k1 != __k2; ++__k1, (void)++__p)
 379:/opt/gcc-arm-none-eabi-9-2020-q2/arm-none-eabi/include/c++/9.3.1/bits/basic_string.h **** 	    traits_type::assign(*__p, *__k1); // These types are off.
 380:/opt/gcc-arm-none-eabi-9-2020-q2/arm-none-eabi/include/c++/9.3.1/bits/basic_string.h **** 	}
 381:/opt/gcc-arm-none-eabi-9-2020-q2/arm-none-eabi/include/c++/9.3.1/bits/basic_string.h **** 
 382:/opt/gcc-arm-none-eabi-9-2020-q2/arm-none-eabi/include/c++/9.3.1/bits/basic_string.h ****       static void
 383:/opt/gcc-arm-none-eabi-9-2020-q2/arm-none-eabi/include/c++/9.3.1/bits/basic_string.h ****       _S_copy_chars(_CharT* __p, iterator __k1, iterator __k2) _GLIBCXX_NOEXCEPT
 384:/opt/gcc-arm-none-eabi-9-2020-q2/arm-none-eabi/include/c++/9.3.1/bits/basic_string.h ****       { _S_copy_chars(__p, __k1.base(), __k2.base()); }
 385:/opt/gcc-arm-none-eabi-9-2020-q2/arm-none-eabi/include/c++/9.3.1/bits/basic_string.h **** 
 386:/opt/gcc-arm-none-eabi-9-2020-q2/arm-none-eabi/include/c++/9.3.1/bits/basic_string.h ****       static void
 387:/opt/gcc-arm-none-eabi-9-2020-q2/arm-none-eabi/include/c++/9.3.1/bits/basic_string.h ****       _S_copy_chars(_CharT* __p, const_iterator __k1, const_iterator __k2)
 388:/opt/gcc-arm-none-eabi-9-2020-q2/arm-none-eabi/include/c++/9.3.1/bits/basic_string.h ****       _GLIBCXX_NOEXCEPT
 389:/opt/gcc-arm-none-eabi-9-2020-q2/arm-none-eabi/include/c++/9.3.1/bits/basic_string.h ****       { _S_copy_chars(__p, __k1.base(), __k2.base()); }
 390:/opt/gcc-arm-none-eabi-9-2020-q2/arm-none-eabi/include/c++/9.3.1/bits/basic_string.h **** 
 391:/opt/gcc-arm-none-eabi-9-2020-q2/arm-none-eabi/include/c++/9.3.1/bits/basic_string.h ****       static void
 392:/opt/gcc-arm-none-eabi-9-2020-q2/arm-none-eabi/include/c++/9.3.1/bits/basic_string.h ****       _S_copy_chars(_CharT* __p, _CharT* __k1, _CharT* __k2) _GLIBCXX_NOEXCEPT
 294              		.loc 4 392 7 is_stmt 1 view .LVU56
 295              	.LBB1138:
 296              	.LBI1138:
 346:/opt/gcc-arm-none-eabi-9-2020-q2/arm-none-eabi/include/c++/9.3.1/bits/basic_string.h ****       {
 297              		.loc 4 346 7 view .LVU57
 298              	.LBB1139:
 348:/opt/gcc-arm-none-eabi-9-2020-q2/arm-none-eabi/include/c++/9.3.1/bits/basic_string.h **** 	  traits_type::assign(*__d, *__s);
 299              		.loc 4 348 2 is_stmt 0 view .LVU58
 300 0014 012C     		cmp	r4, #1
 301 0016 14D0     		beq	.L17
 302              	.LVL25:
 303              	.LBB1140:
 304              	.LBI1140:
 305              		.file 5 "/opt/gcc-arm-none-eabi-9-2020-q2/arm-none-eabi/include/c++/9.3.1/bits/char_traits.h"
   1:/opt/gcc-arm-none-eabi-9-2020-q2/arm-none-eabi/include/c++/9.3.1/bits/char_traits.h **** // Character Traits for use by standard string and iostream -*- C++ -*-
   2:/opt/gcc-arm-none-eabi-9-2020-q2/arm-none-eabi/include/c++/9.3.1/bits/char_traits.h **** 
   3:/opt/gcc-arm-none-eabi-9-2020-q2/arm-none-eabi/include/c++/9.3.1/bits/char_traits.h **** // Copyright (C) 1997-2019 Free Software Foundation, Inc.
   4:/opt/gcc-arm-none-eabi-9-2020-q2/arm-none-eabi/include/c++/9.3.1/bits/char_traits.h **** //
   5:/opt/gcc-arm-none-eabi-9-2020-q2/arm-none-eabi/include/c++/9.3.1/bits/char_traits.h **** // This file is part of the GNU ISO C++ Library.  This library is free
   6:/opt/gcc-arm-none-eabi-9-2020-q2/arm-none-eabi/include/c++/9.3.1/bits/char_traits.h **** // software; you can redistribute it and/or modify it under the
   7:/opt/gcc-arm-none-eabi-9-2020-q2/arm-none-eabi/include/c++/9.3.1/bits/char_traits.h **** // terms of the GNU General Public License as published by the
   8:/opt/gcc-arm-none-eabi-9-2020-q2/arm-none-eabi/include/c++/9.3.1/bits/char_traits.h **** // Free Software Foundation; either version 3, or (at your option)
   9:/opt/gcc-arm-none-eabi-9-2020-q2/arm-none-eabi/include/c++/9.3.1/bits/char_traits.h **** // any later version.
  10:/opt/gcc-arm-none-eabi-9-2020-q2/arm-none-eabi/include/c++/9.3.1/bits/char_traits.h **** 
  11:/opt/gcc-arm-none-eabi-9-2020-q2/arm-none-eabi/include/c++/9.3.1/bits/char_traits.h **** // This library is distributed in the hope that it will be useful,
  12:/opt/gcc-arm-none-eabi-9-2020-q2/arm-none-eabi/include/c++/9.3.1/bits/char_traits.h **** // but WITHOUT ANY WARRANTY; without even the implied warranty of
  13:/opt/gcc-arm-none-eabi-9-2020-q2/arm-none-eabi/include/c++/9.3.1/bits/char_traits.h **** // MERCHANTABILITY or FITNESS FOR A PARTICULAR PURPOSE.  See the
  14:/opt/gcc-arm-none-eabi-9-2020-q2/arm-none-eabi/include/c++/9.3.1/bits/char_traits.h **** // GNU General Public License for more details.
  15:/opt/gcc-arm-none-eabi-9-2020-q2/arm-none-eabi/include/c++/9.3.1/bits/char_traits.h **** 
  16:/opt/gcc-arm-none-eabi-9-2020-q2/arm-none-eabi/include/c++/9.3.1/bits/char_traits.h **** // Under Section 7 of GPL version 3, you are granted additional
  17:/opt/gcc-arm-none-eabi-9-2020-q2/arm-none-eabi/include/c++/9.3.1/bits/char_traits.h **** // permissions described in the GCC Runtime Library Exception, version
  18:/opt/gcc-arm-none-eabi-9-2020-q2/arm-none-eabi/include/c++/9.3.1/bits/char_traits.h **** // 3.1, as published by the Free Software Foundation.
  19:/opt/gcc-arm-none-eabi-9-2020-q2/arm-none-eabi/include/c++/9.3.1/bits/char_traits.h **** 
  20:/opt/gcc-arm-none-eabi-9-2020-q2/arm-none-eabi/include/c++/9.3.1/bits/char_traits.h **** // You should have received a copy of the GNU General Public License and
  21:/opt/gcc-arm-none-eabi-9-2020-q2/arm-none-eabi/include/c++/9.3.1/bits/char_traits.h **** // a copy of the GCC Runtime Library Exception along with this program;
  22:/opt/gcc-arm-none-eabi-9-2020-q2/arm-none-eabi/include/c++/9.3.1/bits/char_traits.h **** // see the files COPYING3 and COPYING.RUNTIME respectively.  If not, see
  23:/opt/gcc-arm-none-eabi-9-2020-q2/arm-none-eabi/include/c++/9.3.1/bits/char_traits.h **** // <http://www.gnu.org/licenses/>.
  24:/opt/gcc-arm-none-eabi-9-2020-q2/arm-none-eabi/include/c++/9.3.1/bits/char_traits.h **** 
  25:/opt/gcc-arm-none-eabi-9-2020-q2/arm-none-eabi/include/c++/9.3.1/bits/char_traits.h **** /** @file bits/char_traits.h
  26:/opt/gcc-arm-none-eabi-9-2020-q2/arm-none-eabi/include/c++/9.3.1/bits/char_traits.h ****  *  This is an internal header file, included by other library headers.
  27:/opt/gcc-arm-none-eabi-9-2020-q2/arm-none-eabi/include/c++/9.3.1/bits/char_traits.h ****  *  Do not attempt to use it directly. @headername{string}
  28:/opt/gcc-arm-none-eabi-9-2020-q2/arm-none-eabi/include/c++/9.3.1/bits/char_traits.h ****  */
ARM GAS  /tmp/ccSnm6QV.s 			page 21


  29:/opt/gcc-arm-none-eabi-9-2020-q2/arm-none-eabi/include/c++/9.3.1/bits/char_traits.h **** 
  30:/opt/gcc-arm-none-eabi-9-2020-q2/arm-none-eabi/include/c++/9.3.1/bits/char_traits.h **** //
  31:/opt/gcc-arm-none-eabi-9-2020-q2/arm-none-eabi/include/c++/9.3.1/bits/char_traits.h **** // ISO C++ 14882: 21  Strings library
  32:/opt/gcc-arm-none-eabi-9-2020-q2/arm-none-eabi/include/c++/9.3.1/bits/char_traits.h **** //
  33:/opt/gcc-arm-none-eabi-9-2020-q2/arm-none-eabi/include/c++/9.3.1/bits/char_traits.h **** 
  34:/opt/gcc-arm-none-eabi-9-2020-q2/arm-none-eabi/include/c++/9.3.1/bits/char_traits.h **** #ifndef _CHAR_TRAITS_H
  35:/opt/gcc-arm-none-eabi-9-2020-q2/arm-none-eabi/include/c++/9.3.1/bits/char_traits.h **** #define _CHAR_TRAITS_H 1
  36:/opt/gcc-arm-none-eabi-9-2020-q2/arm-none-eabi/include/c++/9.3.1/bits/char_traits.h **** 
  37:/opt/gcc-arm-none-eabi-9-2020-q2/arm-none-eabi/include/c++/9.3.1/bits/char_traits.h **** #pragma GCC system_header
  38:/opt/gcc-arm-none-eabi-9-2020-q2/arm-none-eabi/include/c++/9.3.1/bits/char_traits.h **** 
  39:/opt/gcc-arm-none-eabi-9-2020-q2/arm-none-eabi/include/c++/9.3.1/bits/char_traits.h **** #include <bits/stl_algobase.h>  // std::copy, std::fill_n
  40:/opt/gcc-arm-none-eabi-9-2020-q2/arm-none-eabi/include/c++/9.3.1/bits/char_traits.h **** #include <bits/postypes.h>      // For streampos
  41:/opt/gcc-arm-none-eabi-9-2020-q2/arm-none-eabi/include/c++/9.3.1/bits/char_traits.h **** #include <cwchar>               // For WEOF, wmemmove, wmemset, etc.
  42:/opt/gcc-arm-none-eabi-9-2020-q2/arm-none-eabi/include/c++/9.3.1/bits/char_traits.h **** 
  43:/opt/gcc-arm-none-eabi-9-2020-q2/arm-none-eabi/include/c++/9.3.1/bits/char_traits.h **** #ifndef _GLIBCXX_ALWAYS_INLINE
  44:/opt/gcc-arm-none-eabi-9-2020-q2/arm-none-eabi/include/c++/9.3.1/bits/char_traits.h **** # define _GLIBCXX_ALWAYS_INLINE inline __attribute__((__always_inline__))
  45:/opt/gcc-arm-none-eabi-9-2020-q2/arm-none-eabi/include/c++/9.3.1/bits/char_traits.h **** #endif
  46:/opt/gcc-arm-none-eabi-9-2020-q2/arm-none-eabi/include/c++/9.3.1/bits/char_traits.h **** 
  47:/opt/gcc-arm-none-eabi-9-2020-q2/arm-none-eabi/include/c++/9.3.1/bits/char_traits.h **** namespace __gnu_cxx _GLIBCXX_VISIBILITY(default)
  48:/opt/gcc-arm-none-eabi-9-2020-q2/arm-none-eabi/include/c++/9.3.1/bits/char_traits.h **** {
  49:/opt/gcc-arm-none-eabi-9-2020-q2/arm-none-eabi/include/c++/9.3.1/bits/char_traits.h **** _GLIBCXX_BEGIN_NAMESPACE_VERSION
  50:/opt/gcc-arm-none-eabi-9-2020-q2/arm-none-eabi/include/c++/9.3.1/bits/char_traits.h **** 
  51:/opt/gcc-arm-none-eabi-9-2020-q2/arm-none-eabi/include/c++/9.3.1/bits/char_traits.h ****   /**
  52:/opt/gcc-arm-none-eabi-9-2020-q2/arm-none-eabi/include/c++/9.3.1/bits/char_traits.h ****    *  @brief  Mapping from character type to associated types.
  53:/opt/gcc-arm-none-eabi-9-2020-q2/arm-none-eabi/include/c++/9.3.1/bits/char_traits.h ****    *
  54:/opt/gcc-arm-none-eabi-9-2020-q2/arm-none-eabi/include/c++/9.3.1/bits/char_traits.h ****    *  @note This is an implementation class for the generic version
  55:/opt/gcc-arm-none-eabi-9-2020-q2/arm-none-eabi/include/c++/9.3.1/bits/char_traits.h ****    *  of char_traits.  It defines int_type, off_type, pos_type, and
  56:/opt/gcc-arm-none-eabi-9-2020-q2/arm-none-eabi/include/c++/9.3.1/bits/char_traits.h ****    *  state_type.  By default these are unsigned long, streamoff,
  57:/opt/gcc-arm-none-eabi-9-2020-q2/arm-none-eabi/include/c++/9.3.1/bits/char_traits.h ****    *  streampos, and mbstate_t.  Users who need a different set of
  58:/opt/gcc-arm-none-eabi-9-2020-q2/arm-none-eabi/include/c++/9.3.1/bits/char_traits.h ****    *  types, but who don't need to change the definitions of any function
  59:/opt/gcc-arm-none-eabi-9-2020-q2/arm-none-eabi/include/c++/9.3.1/bits/char_traits.h ****    *  defined in char_traits, can specialize __gnu_cxx::_Char_types
  60:/opt/gcc-arm-none-eabi-9-2020-q2/arm-none-eabi/include/c++/9.3.1/bits/char_traits.h ****    *  while leaving __gnu_cxx::char_traits alone. */
  61:/opt/gcc-arm-none-eabi-9-2020-q2/arm-none-eabi/include/c++/9.3.1/bits/char_traits.h ****   template<typename _CharT>
  62:/opt/gcc-arm-none-eabi-9-2020-q2/arm-none-eabi/include/c++/9.3.1/bits/char_traits.h ****     struct _Char_types
  63:/opt/gcc-arm-none-eabi-9-2020-q2/arm-none-eabi/include/c++/9.3.1/bits/char_traits.h ****     {
  64:/opt/gcc-arm-none-eabi-9-2020-q2/arm-none-eabi/include/c++/9.3.1/bits/char_traits.h ****       typedef unsigned long   int_type;
  65:/opt/gcc-arm-none-eabi-9-2020-q2/arm-none-eabi/include/c++/9.3.1/bits/char_traits.h ****       typedef std::streampos  pos_type;
  66:/opt/gcc-arm-none-eabi-9-2020-q2/arm-none-eabi/include/c++/9.3.1/bits/char_traits.h ****       typedef std::streamoff  off_type;
  67:/opt/gcc-arm-none-eabi-9-2020-q2/arm-none-eabi/include/c++/9.3.1/bits/char_traits.h ****       typedef std::mbstate_t  state_type;
  68:/opt/gcc-arm-none-eabi-9-2020-q2/arm-none-eabi/include/c++/9.3.1/bits/char_traits.h ****     };
  69:/opt/gcc-arm-none-eabi-9-2020-q2/arm-none-eabi/include/c++/9.3.1/bits/char_traits.h **** 
  70:/opt/gcc-arm-none-eabi-9-2020-q2/arm-none-eabi/include/c++/9.3.1/bits/char_traits.h **** 
  71:/opt/gcc-arm-none-eabi-9-2020-q2/arm-none-eabi/include/c++/9.3.1/bits/char_traits.h ****   /**
  72:/opt/gcc-arm-none-eabi-9-2020-q2/arm-none-eabi/include/c++/9.3.1/bits/char_traits.h ****    *  @brief  Base class used to implement std::char_traits.
  73:/opt/gcc-arm-none-eabi-9-2020-q2/arm-none-eabi/include/c++/9.3.1/bits/char_traits.h ****    *
  74:/opt/gcc-arm-none-eabi-9-2020-q2/arm-none-eabi/include/c++/9.3.1/bits/char_traits.h ****    *  @note For any given actual character type, this definition is
  75:/opt/gcc-arm-none-eabi-9-2020-q2/arm-none-eabi/include/c++/9.3.1/bits/char_traits.h ****    *  probably wrong.  (Most of the member functions are likely to be
  76:/opt/gcc-arm-none-eabi-9-2020-q2/arm-none-eabi/include/c++/9.3.1/bits/char_traits.h ****    *  right, but the int_type and state_type typedefs, and the eof()
  77:/opt/gcc-arm-none-eabi-9-2020-q2/arm-none-eabi/include/c++/9.3.1/bits/char_traits.h ****    *  member function, are likely to be wrong.)  The reason this class
  78:/opt/gcc-arm-none-eabi-9-2020-q2/arm-none-eabi/include/c++/9.3.1/bits/char_traits.h ****    *  exists is so users can specialize it.  Classes in namespace std
  79:/opt/gcc-arm-none-eabi-9-2020-q2/arm-none-eabi/include/c++/9.3.1/bits/char_traits.h ****    *  may not be specialized for fundamental types, but classes in
  80:/opt/gcc-arm-none-eabi-9-2020-q2/arm-none-eabi/include/c++/9.3.1/bits/char_traits.h ****    *  namespace __gnu_cxx may be.
  81:/opt/gcc-arm-none-eabi-9-2020-q2/arm-none-eabi/include/c++/9.3.1/bits/char_traits.h ****    *
  82:/opt/gcc-arm-none-eabi-9-2020-q2/arm-none-eabi/include/c++/9.3.1/bits/char_traits.h ****    *  See https://gcc.gnu.org/onlinedocs/libstdc++/manual/strings.html#strings.string.character_typ
  83:/opt/gcc-arm-none-eabi-9-2020-q2/arm-none-eabi/include/c++/9.3.1/bits/char_traits.h ****    *  for advice on how to make use of this class for @a unusual character
  84:/opt/gcc-arm-none-eabi-9-2020-q2/arm-none-eabi/include/c++/9.3.1/bits/char_traits.h ****    *  types. Also, check out include/ext/pod_char_traits.h.  
  85:/opt/gcc-arm-none-eabi-9-2020-q2/arm-none-eabi/include/c++/9.3.1/bits/char_traits.h ****    */
ARM GAS  /tmp/ccSnm6QV.s 			page 22


  86:/opt/gcc-arm-none-eabi-9-2020-q2/arm-none-eabi/include/c++/9.3.1/bits/char_traits.h ****   template<typename _CharT>
  87:/opt/gcc-arm-none-eabi-9-2020-q2/arm-none-eabi/include/c++/9.3.1/bits/char_traits.h ****     struct char_traits
  88:/opt/gcc-arm-none-eabi-9-2020-q2/arm-none-eabi/include/c++/9.3.1/bits/char_traits.h ****     {
  89:/opt/gcc-arm-none-eabi-9-2020-q2/arm-none-eabi/include/c++/9.3.1/bits/char_traits.h ****       typedef _CharT                                    char_type;
  90:/opt/gcc-arm-none-eabi-9-2020-q2/arm-none-eabi/include/c++/9.3.1/bits/char_traits.h ****       typedef typename _Char_types<_CharT>::int_type    int_type;
  91:/opt/gcc-arm-none-eabi-9-2020-q2/arm-none-eabi/include/c++/9.3.1/bits/char_traits.h ****       typedef typename _Char_types<_CharT>::pos_type    pos_type;
  92:/opt/gcc-arm-none-eabi-9-2020-q2/arm-none-eabi/include/c++/9.3.1/bits/char_traits.h ****       typedef typename _Char_types<_CharT>::off_type    off_type;
  93:/opt/gcc-arm-none-eabi-9-2020-q2/arm-none-eabi/include/c++/9.3.1/bits/char_traits.h ****       typedef typename _Char_types<_CharT>::state_type  state_type;
  94:/opt/gcc-arm-none-eabi-9-2020-q2/arm-none-eabi/include/c++/9.3.1/bits/char_traits.h **** 
  95:/opt/gcc-arm-none-eabi-9-2020-q2/arm-none-eabi/include/c++/9.3.1/bits/char_traits.h ****       static _GLIBCXX14_CONSTEXPR void
  96:/opt/gcc-arm-none-eabi-9-2020-q2/arm-none-eabi/include/c++/9.3.1/bits/char_traits.h ****       assign(char_type& __c1, const char_type& __c2)
  97:/opt/gcc-arm-none-eabi-9-2020-q2/arm-none-eabi/include/c++/9.3.1/bits/char_traits.h ****       { __c1 = __c2; }
  98:/opt/gcc-arm-none-eabi-9-2020-q2/arm-none-eabi/include/c++/9.3.1/bits/char_traits.h **** 
  99:/opt/gcc-arm-none-eabi-9-2020-q2/arm-none-eabi/include/c++/9.3.1/bits/char_traits.h ****       static _GLIBCXX_CONSTEXPR bool
 100:/opt/gcc-arm-none-eabi-9-2020-q2/arm-none-eabi/include/c++/9.3.1/bits/char_traits.h ****       eq(const char_type& __c1, const char_type& __c2)
 101:/opt/gcc-arm-none-eabi-9-2020-q2/arm-none-eabi/include/c++/9.3.1/bits/char_traits.h ****       { return __c1 == __c2; }
 102:/opt/gcc-arm-none-eabi-9-2020-q2/arm-none-eabi/include/c++/9.3.1/bits/char_traits.h **** 
 103:/opt/gcc-arm-none-eabi-9-2020-q2/arm-none-eabi/include/c++/9.3.1/bits/char_traits.h ****       static _GLIBCXX_CONSTEXPR bool
 104:/opt/gcc-arm-none-eabi-9-2020-q2/arm-none-eabi/include/c++/9.3.1/bits/char_traits.h ****       lt(const char_type& __c1, const char_type& __c2)
 105:/opt/gcc-arm-none-eabi-9-2020-q2/arm-none-eabi/include/c++/9.3.1/bits/char_traits.h ****       { return __c1 < __c2; }
 106:/opt/gcc-arm-none-eabi-9-2020-q2/arm-none-eabi/include/c++/9.3.1/bits/char_traits.h **** 
 107:/opt/gcc-arm-none-eabi-9-2020-q2/arm-none-eabi/include/c++/9.3.1/bits/char_traits.h ****       static _GLIBCXX14_CONSTEXPR int
 108:/opt/gcc-arm-none-eabi-9-2020-q2/arm-none-eabi/include/c++/9.3.1/bits/char_traits.h ****       compare(const char_type* __s1, const char_type* __s2, std::size_t __n);
 109:/opt/gcc-arm-none-eabi-9-2020-q2/arm-none-eabi/include/c++/9.3.1/bits/char_traits.h **** 
 110:/opt/gcc-arm-none-eabi-9-2020-q2/arm-none-eabi/include/c++/9.3.1/bits/char_traits.h ****       static _GLIBCXX14_CONSTEXPR std::size_t
 111:/opt/gcc-arm-none-eabi-9-2020-q2/arm-none-eabi/include/c++/9.3.1/bits/char_traits.h ****       length(const char_type* __s);
 112:/opt/gcc-arm-none-eabi-9-2020-q2/arm-none-eabi/include/c++/9.3.1/bits/char_traits.h **** 
 113:/opt/gcc-arm-none-eabi-9-2020-q2/arm-none-eabi/include/c++/9.3.1/bits/char_traits.h ****       static _GLIBCXX14_CONSTEXPR const char_type*
 114:/opt/gcc-arm-none-eabi-9-2020-q2/arm-none-eabi/include/c++/9.3.1/bits/char_traits.h ****       find(const char_type* __s, std::size_t __n, const char_type& __a);
 115:/opt/gcc-arm-none-eabi-9-2020-q2/arm-none-eabi/include/c++/9.3.1/bits/char_traits.h **** 
 116:/opt/gcc-arm-none-eabi-9-2020-q2/arm-none-eabi/include/c++/9.3.1/bits/char_traits.h ****       static char_type*
 117:/opt/gcc-arm-none-eabi-9-2020-q2/arm-none-eabi/include/c++/9.3.1/bits/char_traits.h ****       move(char_type* __s1, const char_type* __s2, std::size_t __n);
 118:/opt/gcc-arm-none-eabi-9-2020-q2/arm-none-eabi/include/c++/9.3.1/bits/char_traits.h **** 
 119:/opt/gcc-arm-none-eabi-9-2020-q2/arm-none-eabi/include/c++/9.3.1/bits/char_traits.h ****       static char_type*
 120:/opt/gcc-arm-none-eabi-9-2020-q2/arm-none-eabi/include/c++/9.3.1/bits/char_traits.h ****       copy(char_type* __s1, const char_type* __s2, std::size_t __n);
 121:/opt/gcc-arm-none-eabi-9-2020-q2/arm-none-eabi/include/c++/9.3.1/bits/char_traits.h **** 
 122:/opt/gcc-arm-none-eabi-9-2020-q2/arm-none-eabi/include/c++/9.3.1/bits/char_traits.h ****       static char_type*
 123:/opt/gcc-arm-none-eabi-9-2020-q2/arm-none-eabi/include/c++/9.3.1/bits/char_traits.h ****       assign(char_type* __s, std::size_t __n, char_type __a);
 124:/opt/gcc-arm-none-eabi-9-2020-q2/arm-none-eabi/include/c++/9.3.1/bits/char_traits.h **** 
 125:/opt/gcc-arm-none-eabi-9-2020-q2/arm-none-eabi/include/c++/9.3.1/bits/char_traits.h ****       static _GLIBCXX_CONSTEXPR char_type
 126:/opt/gcc-arm-none-eabi-9-2020-q2/arm-none-eabi/include/c++/9.3.1/bits/char_traits.h ****       to_char_type(const int_type& __c)
 127:/opt/gcc-arm-none-eabi-9-2020-q2/arm-none-eabi/include/c++/9.3.1/bits/char_traits.h ****       { return static_cast<char_type>(__c); }
 128:/opt/gcc-arm-none-eabi-9-2020-q2/arm-none-eabi/include/c++/9.3.1/bits/char_traits.h **** 
 129:/opt/gcc-arm-none-eabi-9-2020-q2/arm-none-eabi/include/c++/9.3.1/bits/char_traits.h ****       static _GLIBCXX_CONSTEXPR int_type
 130:/opt/gcc-arm-none-eabi-9-2020-q2/arm-none-eabi/include/c++/9.3.1/bits/char_traits.h ****       to_int_type(const char_type& __c)
 131:/opt/gcc-arm-none-eabi-9-2020-q2/arm-none-eabi/include/c++/9.3.1/bits/char_traits.h ****       { return static_cast<int_type>(__c); }
 132:/opt/gcc-arm-none-eabi-9-2020-q2/arm-none-eabi/include/c++/9.3.1/bits/char_traits.h **** 
 133:/opt/gcc-arm-none-eabi-9-2020-q2/arm-none-eabi/include/c++/9.3.1/bits/char_traits.h ****       static _GLIBCXX_CONSTEXPR bool
 134:/opt/gcc-arm-none-eabi-9-2020-q2/arm-none-eabi/include/c++/9.3.1/bits/char_traits.h ****       eq_int_type(const int_type& __c1, const int_type& __c2)
 135:/opt/gcc-arm-none-eabi-9-2020-q2/arm-none-eabi/include/c++/9.3.1/bits/char_traits.h ****       { return __c1 == __c2; }
 136:/opt/gcc-arm-none-eabi-9-2020-q2/arm-none-eabi/include/c++/9.3.1/bits/char_traits.h **** 
 137:/opt/gcc-arm-none-eabi-9-2020-q2/arm-none-eabi/include/c++/9.3.1/bits/char_traits.h ****       static _GLIBCXX_CONSTEXPR int_type
 138:/opt/gcc-arm-none-eabi-9-2020-q2/arm-none-eabi/include/c++/9.3.1/bits/char_traits.h ****       eof()
 139:/opt/gcc-arm-none-eabi-9-2020-q2/arm-none-eabi/include/c++/9.3.1/bits/char_traits.h ****       { return static_cast<int_type>(_GLIBCXX_STDIO_EOF); }
 140:/opt/gcc-arm-none-eabi-9-2020-q2/arm-none-eabi/include/c++/9.3.1/bits/char_traits.h **** 
 141:/opt/gcc-arm-none-eabi-9-2020-q2/arm-none-eabi/include/c++/9.3.1/bits/char_traits.h ****       static _GLIBCXX_CONSTEXPR int_type
 142:/opt/gcc-arm-none-eabi-9-2020-q2/arm-none-eabi/include/c++/9.3.1/bits/char_traits.h ****       not_eof(const int_type& __c)
ARM GAS  /tmp/ccSnm6QV.s 			page 23


 143:/opt/gcc-arm-none-eabi-9-2020-q2/arm-none-eabi/include/c++/9.3.1/bits/char_traits.h ****       { return !eq_int_type(__c, eof()) ? __c : to_int_type(char_type()); }
 144:/opt/gcc-arm-none-eabi-9-2020-q2/arm-none-eabi/include/c++/9.3.1/bits/char_traits.h ****     };
 145:/opt/gcc-arm-none-eabi-9-2020-q2/arm-none-eabi/include/c++/9.3.1/bits/char_traits.h **** 
 146:/opt/gcc-arm-none-eabi-9-2020-q2/arm-none-eabi/include/c++/9.3.1/bits/char_traits.h ****   template<typename _CharT>
 147:/opt/gcc-arm-none-eabi-9-2020-q2/arm-none-eabi/include/c++/9.3.1/bits/char_traits.h ****     _GLIBCXX14_CONSTEXPR int
 148:/opt/gcc-arm-none-eabi-9-2020-q2/arm-none-eabi/include/c++/9.3.1/bits/char_traits.h ****     char_traits<_CharT>::
 149:/opt/gcc-arm-none-eabi-9-2020-q2/arm-none-eabi/include/c++/9.3.1/bits/char_traits.h ****     compare(const char_type* __s1, const char_type* __s2, std::size_t __n)
 150:/opt/gcc-arm-none-eabi-9-2020-q2/arm-none-eabi/include/c++/9.3.1/bits/char_traits.h ****     {
 151:/opt/gcc-arm-none-eabi-9-2020-q2/arm-none-eabi/include/c++/9.3.1/bits/char_traits.h ****       for (std::size_t __i = 0; __i < __n; ++__i)
 152:/opt/gcc-arm-none-eabi-9-2020-q2/arm-none-eabi/include/c++/9.3.1/bits/char_traits.h **** 	if (lt(__s1[__i], __s2[__i]))
 153:/opt/gcc-arm-none-eabi-9-2020-q2/arm-none-eabi/include/c++/9.3.1/bits/char_traits.h **** 	  return -1;
 154:/opt/gcc-arm-none-eabi-9-2020-q2/arm-none-eabi/include/c++/9.3.1/bits/char_traits.h **** 	else if (lt(__s2[__i], __s1[__i]))
 155:/opt/gcc-arm-none-eabi-9-2020-q2/arm-none-eabi/include/c++/9.3.1/bits/char_traits.h **** 	  return 1;
 156:/opt/gcc-arm-none-eabi-9-2020-q2/arm-none-eabi/include/c++/9.3.1/bits/char_traits.h ****       return 0;
 157:/opt/gcc-arm-none-eabi-9-2020-q2/arm-none-eabi/include/c++/9.3.1/bits/char_traits.h ****     }
 158:/opt/gcc-arm-none-eabi-9-2020-q2/arm-none-eabi/include/c++/9.3.1/bits/char_traits.h **** 
 159:/opt/gcc-arm-none-eabi-9-2020-q2/arm-none-eabi/include/c++/9.3.1/bits/char_traits.h ****   template<typename _CharT>
 160:/opt/gcc-arm-none-eabi-9-2020-q2/arm-none-eabi/include/c++/9.3.1/bits/char_traits.h ****     _GLIBCXX14_CONSTEXPR std::size_t
 161:/opt/gcc-arm-none-eabi-9-2020-q2/arm-none-eabi/include/c++/9.3.1/bits/char_traits.h ****     char_traits<_CharT>::
 162:/opt/gcc-arm-none-eabi-9-2020-q2/arm-none-eabi/include/c++/9.3.1/bits/char_traits.h ****     length(const char_type* __p)
 163:/opt/gcc-arm-none-eabi-9-2020-q2/arm-none-eabi/include/c++/9.3.1/bits/char_traits.h ****     {
 164:/opt/gcc-arm-none-eabi-9-2020-q2/arm-none-eabi/include/c++/9.3.1/bits/char_traits.h ****       std::size_t __i = 0;
 165:/opt/gcc-arm-none-eabi-9-2020-q2/arm-none-eabi/include/c++/9.3.1/bits/char_traits.h ****       while (!eq(__p[__i], char_type()))
 166:/opt/gcc-arm-none-eabi-9-2020-q2/arm-none-eabi/include/c++/9.3.1/bits/char_traits.h ****         ++__i;
 167:/opt/gcc-arm-none-eabi-9-2020-q2/arm-none-eabi/include/c++/9.3.1/bits/char_traits.h ****       return __i;
 168:/opt/gcc-arm-none-eabi-9-2020-q2/arm-none-eabi/include/c++/9.3.1/bits/char_traits.h ****     }
 169:/opt/gcc-arm-none-eabi-9-2020-q2/arm-none-eabi/include/c++/9.3.1/bits/char_traits.h **** 
 170:/opt/gcc-arm-none-eabi-9-2020-q2/arm-none-eabi/include/c++/9.3.1/bits/char_traits.h ****   template<typename _CharT>
 171:/opt/gcc-arm-none-eabi-9-2020-q2/arm-none-eabi/include/c++/9.3.1/bits/char_traits.h ****     _GLIBCXX14_CONSTEXPR const typename char_traits<_CharT>::char_type*
 172:/opt/gcc-arm-none-eabi-9-2020-q2/arm-none-eabi/include/c++/9.3.1/bits/char_traits.h ****     char_traits<_CharT>::
 173:/opt/gcc-arm-none-eabi-9-2020-q2/arm-none-eabi/include/c++/9.3.1/bits/char_traits.h ****     find(const char_type* __s, std::size_t __n, const char_type& __a)
 174:/opt/gcc-arm-none-eabi-9-2020-q2/arm-none-eabi/include/c++/9.3.1/bits/char_traits.h ****     {
 175:/opt/gcc-arm-none-eabi-9-2020-q2/arm-none-eabi/include/c++/9.3.1/bits/char_traits.h ****       for (std::size_t __i = 0; __i < __n; ++__i)
 176:/opt/gcc-arm-none-eabi-9-2020-q2/arm-none-eabi/include/c++/9.3.1/bits/char_traits.h ****         if (eq(__s[__i], __a))
 177:/opt/gcc-arm-none-eabi-9-2020-q2/arm-none-eabi/include/c++/9.3.1/bits/char_traits.h ****           return __s + __i;
 178:/opt/gcc-arm-none-eabi-9-2020-q2/arm-none-eabi/include/c++/9.3.1/bits/char_traits.h ****       return 0;
 179:/opt/gcc-arm-none-eabi-9-2020-q2/arm-none-eabi/include/c++/9.3.1/bits/char_traits.h ****     }
 180:/opt/gcc-arm-none-eabi-9-2020-q2/arm-none-eabi/include/c++/9.3.1/bits/char_traits.h **** 
 181:/opt/gcc-arm-none-eabi-9-2020-q2/arm-none-eabi/include/c++/9.3.1/bits/char_traits.h ****   template<typename _CharT>
 182:/opt/gcc-arm-none-eabi-9-2020-q2/arm-none-eabi/include/c++/9.3.1/bits/char_traits.h ****     typename char_traits<_CharT>::char_type*
 183:/opt/gcc-arm-none-eabi-9-2020-q2/arm-none-eabi/include/c++/9.3.1/bits/char_traits.h ****     char_traits<_CharT>::
 184:/opt/gcc-arm-none-eabi-9-2020-q2/arm-none-eabi/include/c++/9.3.1/bits/char_traits.h ****     move(char_type* __s1, const char_type* __s2, std::size_t __n)
 185:/opt/gcc-arm-none-eabi-9-2020-q2/arm-none-eabi/include/c++/9.3.1/bits/char_traits.h ****     {
 186:/opt/gcc-arm-none-eabi-9-2020-q2/arm-none-eabi/include/c++/9.3.1/bits/char_traits.h ****       if (__n == 0)
 187:/opt/gcc-arm-none-eabi-9-2020-q2/arm-none-eabi/include/c++/9.3.1/bits/char_traits.h **** 	return __s1;
 188:/opt/gcc-arm-none-eabi-9-2020-q2/arm-none-eabi/include/c++/9.3.1/bits/char_traits.h ****       return static_cast<_CharT*>(__builtin_memmove(__s1, __s2,
 189:/opt/gcc-arm-none-eabi-9-2020-q2/arm-none-eabi/include/c++/9.3.1/bits/char_traits.h **** 						    __n * sizeof(char_type)));
 190:/opt/gcc-arm-none-eabi-9-2020-q2/arm-none-eabi/include/c++/9.3.1/bits/char_traits.h ****     }
 191:/opt/gcc-arm-none-eabi-9-2020-q2/arm-none-eabi/include/c++/9.3.1/bits/char_traits.h **** 
 192:/opt/gcc-arm-none-eabi-9-2020-q2/arm-none-eabi/include/c++/9.3.1/bits/char_traits.h ****   template<typename _CharT>
 193:/opt/gcc-arm-none-eabi-9-2020-q2/arm-none-eabi/include/c++/9.3.1/bits/char_traits.h ****     typename char_traits<_CharT>::char_type*
 194:/opt/gcc-arm-none-eabi-9-2020-q2/arm-none-eabi/include/c++/9.3.1/bits/char_traits.h ****     char_traits<_CharT>::
 195:/opt/gcc-arm-none-eabi-9-2020-q2/arm-none-eabi/include/c++/9.3.1/bits/char_traits.h ****     copy(char_type* __s1, const char_type* __s2, std::size_t __n)
 196:/opt/gcc-arm-none-eabi-9-2020-q2/arm-none-eabi/include/c++/9.3.1/bits/char_traits.h ****     {
 197:/opt/gcc-arm-none-eabi-9-2020-q2/arm-none-eabi/include/c++/9.3.1/bits/char_traits.h ****       // NB: Inline std::copy so no recursive dependencies.
 198:/opt/gcc-arm-none-eabi-9-2020-q2/arm-none-eabi/include/c++/9.3.1/bits/char_traits.h ****       std::copy(__s2, __s2 + __n, __s1);
 199:/opt/gcc-arm-none-eabi-9-2020-q2/arm-none-eabi/include/c++/9.3.1/bits/char_traits.h ****       return __s1;
ARM GAS  /tmp/ccSnm6QV.s 			page 24


 200:/opt/gcc-arm-none-eabi-9-2020-q2/arm-none-eabi/include/c++/9.3.1/bits/char_traits.h ****     }
 201:/opt/gcc-arm-none-eabi-9-2020-q2/arm-none-eabi/include/c++/9.3.1/bits/char_traits.h **** 
 202:/opt/gcc-arm-none-eabi-9-2020-q2/arm-none-eabi/include/c++/9.3.1/bits/char_traits.h ****   template<typename _CharT>
 203:/opt/gcc-arm-none-eabi-9-2020-q2/arm-none-eabi/include/c++/9.3.1/bits/char_traits.h ****     typename char_traits<_CharT>::char_type*
 204:/opt/gcc-arm-none-eabi-9-2020-q2/arm-none-eabi/include/c++/9.3.1/bits/char_traits.h ****     char_traits<_CharT>::
 205:/opt/gcc-arm-none-eabi-9-2020-q2/arm-none-eabi/include/c++/9.3.1/bits/char_traits.h ****     assign(char_type* __s, std::size_t __n, char_type __a)
 206:/opt/gcc-arm-none-eabi-9-2020-q2/arm-none-eabi/include/c++/9.3.1/bits/char_traits.h ****     {
 207:/opt/gcc-arm-none-eabi-9-2020-q2/arm-none-eabi/include/c++/9.3.1/bits/char_traits.h ****       // NB: Inline std::fill_n so no recursive dependencies.
 208:/opt/gcc-arm-none-eabi-9-2020-q2/arm-none-eabi/include/c++/9.3.1/bits/char_traits.h ****       std::fill_n(__s, __n, __a);
 209:/opt/gcc-arm-none-eabi-9-2020-q2/arm-none-eabi/include/c++/9.3.1/bits/char_traits.h ****       return __s;
 210:/opt/gcc-arm-none-eabi-9-2020-q2/arm-none-eabi/include/c++/9.3.1/bits/char_traits.h ****     }
 211:/opt/gcc-arm-none-eabi-9-2020-q2/arm-none-eabi/include/c++/9.3.1/bits/char_traits.h **** 
 212:/opt/gcc-arm-none-eabi-9-2020-q2/arm-none-eabi/include/c++/9.3.1/bits/char_traits.h **** _GLIBCXX_END_NAMESPACE_VERSION
 213:/opt/gcc-arm-none-eabi-9-2020-q2/arm-none-eabi/include/c++/9.3.1/bits/char_traits.h **** } // namespace
 214:/opt/gcc-arm-none-eabi-9-2020-q2/arm-none-eabi/include/c++/9.3.1/bits/char_traits.h **** 
 215:/opt/gcc-arm-none-eabi-9-2020-q2/arm-none-eabi/include/c++/9.3.1/bits/char_traits.h **** namespace std _GLIBCXX_VISIBILITY(default)
 216:/opt/gcc-arm-none-eabi-9-2020-q2/arm-none-eabi/include/c++/9.3.1/bits/char_traits.h **** {
 217:/opt/gcc-arm-none-eabi-9-2020-q2/arm-none-eabi/include/c++/9.3.1/bits/char_traits.h **** _GLIBCXX_BEGIN_NAMESPACE_VERSION
 218:/opt/gcc-arm-none-eabi-9-2020-q2/arm-none-eabi/include/c++/9.3.1/bits/char_traits.h **** 
 219:/opt/gcc-arm-none-eabi-9-2020-q2/arm-none-eabi/include/c++/9.3.1/bits/char_traits.h **** #if __cplusplus >= 201703L
 220:/opt/gcc-arm-none-eabi-9-2020-q2/arm-none-eabi/include/c++/9.3.1/bits/char_traits.h **** #define __cpp_lib_constexpr_char_traits 201611
 221:/opt/gcc-arm-none-eabi-9-2020-q2/arm-none-eabi/include/c++/9.3.1/bits/char_traits.h **** 
 222:/opt/gcc-arm-none-eabi-9-2020-q2/arm-none-eabi/include/c++/9.3.1/bits/char_traits.h ****   /**
 223:/opt/gcc-arm-none-eabi-9-2020-q2/arm-none-eabi/include/c++/9.3.1/bits/char_traits.h ****    *  @brief Determine whether the characters of a NULL-terminated
 224:/opt/gcc-arm-none-eabi-9-2020-q2/arm-none-eabi/include/c++/9.3.1/bits/char_traits.h ****    *  string are known at compile time.
 225:/opt/gcc-arm-none-eabi-9-2020-q2/arm-none-eabi/include/c++/9.3.1/bits/char_traits.h ****    *  @param  __s  The string.
 226:/opt/gcc-arm-none-eabi-9-2020-q2/arm-none-eabi/include/c++/9.3.1/bits/char_traits.h ****    *
 227:/opt/gcc-arm-none-eabi-9-2020-q2/arm-none-eabi/include/c++/9.3.1/bits/char_traits.h ****    *  Assumes that _CharT is a built-in character type.
 228:/opt/gcc-arm-none-eabi-9-2020-q2/arm-none-eabi/include/c++/9.3.1/bits/char_traits.h ****    */
 229:/opt/gcc-arm-none-eabi-9-2020-q2/arm-none-eabi/include/c++/9.3.1/bits/char_traits.h ****   template<typename _CharT>
 230:/opt/gcc-arm-none-eabi-9-2020-q2/arm-none-eabi/include/c++/9.3.1/bits/char_traits.h ****     static _GLIBCXX_ALWAYS_INLINE constexpr bool
 231:/opt/gcc-arm-none-eabi-9-2020-q2/arm-none-eabi/include/c++/9.3.1/bits/char_traits.h ****     __constant_string_p(const _CharT* __s)
 232:/opt/gcc-arm-none-eabi-9-2020-q2/arm-none-eabi/include/c++/9.3.1/bits/char_traits.h ****     {
 233:/opt/gcc-arm-none-eabi-9-2020-q2/arm-none-eabi/include/c++/9.3.1/bits/char_traits.h **** #ifdef _GLIBCXX_HAVE_BUILTIN_IS_CONSTANT_EVALUATED
 234:/opt/gcc-arm-none-eabi-9-2020-q2/arm-none-eabi/include/c++/9.3.1/bits/char_traits.h ****       (void) __s;
 235:/opt/gcc-arm-none-eabi-9-2020-q2/arm-none-eabi/include/c++/9.3.1/bits/char_traits.h ****       // In constexpr contexts all strings should be constant.
 236:/opt/gcc-arm-none-eabi-9-2020-q2/arm-none-eabi/include/c++/9.3.1/bits/char_traits.h ****       return __builtin_is_constant_evaluated();
 237:/opt/gcc-arm-none-eabi-9-2020-q2/arm-none-eabi/include/c++/9.3.1/bits/char_traits.h **** #else
 238:/opt/gcc-arm-none-eabi-9-2020-q2/arm-none-eabi/include/c++/9.3.1/bits/char_traits.h ****       while (__builtin_constant_p(*__s) && *__s)
 239:/opt/gcc-arm-none-eabi-9-2020-q2/arm-none-eabi/include/c++/9.3.1/bits/char_traits.h **** 	__s++;
 240:/opt/gcc-arm-none-eabi-9-2020-q2/arm-none-eabi/include/c++/9.3.1/bits/char_traits.h ****       return __builtin_constant_p(*__s);
 241:/opt/gcc-arm-none-eabi-9-2020-q2/arm-none-eabi/include/c++/9.3.1/bits/char_traits.h **** #endif
 242:/opt/gcc-arm-none-eabi-9-2020-q2/arm-none-eabi/include/c++/9.3.1/bits/char_traits.h ****     }
 243:/opt/gcc-arm-none-eabi-9-2020-q2/arm-none-eabi/include/c++/9.3.1/bits/char_traits.h **** 
 244:/opt/gcc-arm-none-eabi-9-2020-q2/arm-none-eabi/include/c++/9.3.1/bits/char_traits.h ****   /**
 245:/opt/gcc-arm-none-eabi-9-2020-q2/arm-none-eabi/include/c++/9.3.1/bits/char_traits.h ****    *  @brief Determine whether the characters of a character array are
 246:/opt/gcc-arm-none-eabi-9-2020-q2/arm-none-eabi/include/c++/9.3.1/bits/char_traits.h ****    *  known at compile time.
 247:/opt/gcc-arm-none-eabi-9-2020-q2/arm-none-eabi/include/c++/9.3.1/bits/char_traits.h ****    *  @param  __a  The character array.
 248:/opt/gcc-arm-none-eabi-9-2020-q2/arm-none-eabi/include/c++/9.3.1/bits/char_traits.h ****    *  @param  __n  Number of characters.
 249:/opt/gcc-arm-none-eabi-9-2020-q2/arm-none-eabi/include/c++/9.3.1/bits/char_traits.h ****    *
 250:/opt/gcc-arm-none-eabi-9-2020-q2/arm-none-eabi/include/c++/9.3.1/bits/char_traits.h ****    *  Assumes that _CharT is a built-in character type.
 251:/opt/gcc-arm-none-eabi-9-2020-q2/arm-none-eabi/include/c++/9.3.1/bits/char_traits.h ****    */
 252:/opt/gcc-arm-none-eabi-9-2020-q2/arm-none-eabi/include/c++/9.3.1/bits/char_traits.h ****   template<typename _CharT>
 253:/opt/gcc-arm-none-eabi-9-2020-q2/arm-none-eabi/include/c++/9.3.1/bits/char_traits.h ****     static _GLIBCXX_ALWAYS_INLINE constexpr bool
 254:/opt/gcc-arm-none-eabi-9-2020-q2/arm-none-eabi/include/c++/9.3.1/bits/char_traits.h ****     __constant_char_array_p(const _CharT* __a, size_t __n)
 255:/opt/gcc-arm-none-eabi-9-2020-q2/arm-none-eabi/include/c++/9.3.1/bits/char_traits.h ****     {
 256:/opt/gcc-arm-none-eabi-9-2020-q2/arm-none-eabi/include/c++/9.3.1/bits/char_traits.h **** #ifdef _GLIBCXX_HAVE_BUILTIN_IS_CONSTANT_EVALUATED
ARM GAS  /tmp/ccSnm6QV.s 			page 25


 257:/opt/gcc-arm-none-eabi-9-2020-q2/arm-none-eabi/include/c++/9.3.1/bits/char_traits.h ****       (void) __a;
 258:/opt/gcc-arm-none-eabi-9-2020-q2/arm-none-eabi/include/c++/9.3.1/bits/char_traits.h ****       (void) __n;
 259:/opt/gcc-arm-none-eabi-9-2020-q2/arm-none-eabi/include/c++/9.3.1/bits/char_traits.h ****       // In constexpr contexts all character arrays should be constant.
 260:/opt/gcc-arm-none-eabi-9-2020-q2/arm-none-eabi/include/c++/9.3.1/bits/char_traits.h ****       return __builtin_is_constant_evaluated();
 261:/opt/gcc-arm-none-eabi-9-2020-q2/arm-none-eabi/include/c++/9.3.1/bits/char_traits.h **** #else
 262:/opt/gcc-arm-none-eabi-9-2020-q2/arm-none-eabi/include/c++/9.3.1/bits/char_traits.h ****       size_t __i = 0;
 263:/opt/gcc-arm-none-eabi-9-2020-q2/arm-none-eabi/include/c++/9.3.1/bits/char_traits.h ****       while (__i < __n && __builtin_constant_p(__a[__i]))
 264:/opt/gcc-arm-none-eabi-9-2020-q2/arm-none-eabi/include/c++/9.3.1/bits/char_traits.h **** 	__i++;
 265:/opt/gcc-arm-none-eabi-9-2020-q2/arm-none-eabi/include/c++/9.3.1/bits/char_traits.h ****       return __i == __n;
 266:/opt/gcc-arm-none-eabi-9-2020-q2/arm-none-eabi/include/c++/9.3.1/bits/char_traits.h **** #endif
 267:/opt/gcc-arm-none-eabi-9-2020-q2/arm-none-eabi/include/c++/9.3.1/bits/char_traits.h ****     }
 268:/opt/gcc-arm-none-eabi-9-2020-q2/arm-none-eabi/include/c++/9.3.1/bits/char_traits.h **** #endif
 269:/opt/gcc-arm-none-eabi-9-2020-q2/arm-none-eabi/include/c++/9.3.1/bits/char_traits.h **** 
 270:/opt/gcc-arm-none-eabi-9-2020-q2/arm-none-eabi/include/c++/9.3.1/bits/char_traits.h ****   // 21.1
 271:/opt/gcc-arm-none-eabi-9-2020-q2/arm-none-eabi/include/c++/9.3.1/bits/char_traits.h ****   /**
 272:/opt/gcc-arm-none-eabi-9-2020-q2/arm-none-eabi/include/c++/9.3.1/bits/char_traits.h ****    *  @brief  Basis for explicit traits specializations.
 273:/opt/gcc-arm-none-eabi-9-2020-q2/arm-none-eabi/include/c++/9.3.1/bits/char_traits.h ****    *
 274:/opt/gcc-arm-none-eabi-9-2020-q2/arm-none-eabi/include/c++/9.3.1/bits/char_traits.h ****    *  @note  For any given actual character type, this definition is
 275:/opt/gcc-arm-none-eabi-9-2020-q2/arm-none-eabi/include/c++/9.3.1/bits/char_traits.h ****    *  probably wrong.  Since this is just a thin wrapper around
 276:/opt/gcc-arm-none-eabi-9-2020-q2/arm-none-eabi/include/c++/9.3.1/bits/char_traits.h ****    *  __gnu_cxx::char_traits, it is possible to achieve a more
 277:/opt/gcc-arm-none-eabi-9-2020-q2/arm-none-eabi/include/c++/9.3.1/bits/char_traits.h ****    *  appropriate definition by specializing __gnu_cxx::char_traits.
 278:/opt/gcc-arm-none-eabi-9-2020-q2/arm-none-eabi/include/c++/9.3.1/bits/char_traits.h ****    *
 279:/opt/gcc-arm-none-eabi-9-2020-q2/arm-none-eabi/include/c++/9.3.1/bits/char_traits.h ****    *  See https://gcc.gnu.org/onlinedocs/libstdc++/manual/strings.html#strings.string.character_typ
 280:/opt/gcc-arm-none-eabi-9-2020-q2/arm-none-eabi/include/c++/9.3.1/bits/char_traits.h ****    *  for advice on how to make use of this class for @a unusual character
 281:/opt/gcc-arm-none-eabi-9-2020-q2/arm-none-eabi/include/c++/9.3.1/bits/char_traits.h ****    *  types. Also, check out include/ext/pod_char_traits.h.
 282:/opt/gcc-arm-none-eabi-9-2020-q2/arm-none-eabi/include/c++/9.3.1/bits/char_traits.h ****   */
 283:/opt/gcc-arm-none-eabi-9-2020-q2/arm-none-eabi/include/c++/9.3.1/bits/char_traits.h ****   template<class _CharT>
 284:/opt/gcc-arm-none-eabi-9-2020-q2/arm-none-eabi/include/c++/9.3.1/bits/char_traits.h ****     struct char_traits : public __gnu_cxx::char_traits<_CharT>
 285:/opt/gcc-arm-none-eabi-9-2020-q2/arm-none-eabi/include/c++/9.3.1/bits/char_traits.h ****     { };
 286:/opt/gcc-arm-none-eabi-9-2020-q2/arm-none-eabi/include/c++/9.3.1/bits/char_traits.h **** 
 287:/opt/gcc-arm-none-eabi-9-2020-q2/arm-none-eabi/include/c++/9.3.1/bits/char_traits.h **** 
 288:/opt/gcc-arm-none-eabi-9-2020-q2/arm-none-eabi/include/c++/9.3.1/bits/char_traits.h ****   /// 21.1.3.1  char_traits specializations
 289:/opt/gcc-arm-none-eabi-9-2020-q2/arm-none-eabi/include/c++/9.3.1/bits/char_traits.h ****   template<>
 290:/opt/gcc-arm-none-eabi-9-2020-q2/arm-none-eabi/include/c++/9.3.1/bits/char_traits.h ****     struct char_traits<char>
 291:/opt/gcc-arm-none-eabi-9-2020-q2/arm-none-eabi/include/c++/9.3.1/bits/char_traits.h ****     {
 292:/opt/gcc-arm-none-eabi-9-2020-q2/arm-none-eabi/include/c++/9.3.1/bits/char_traits.h ****       typedef char              char_type;
 293:/opt/gcc-arm-none-eabi-9-2020-q2/arm-none-eabi/include/c++/9.3.1/bits/char_traits.h ****       typedef int               int_type;
 294:/opt/gcc-arm-none-eabi-9-2020-q2/arm-none-eabi/include/c++/9.3.1/bits/char_traits.h ****       typedef streampos         pos_type;
 295:/opt/gcc-arm-none-eabi-9-2020-q2/arm-none-eabi/include/c++/9.3.1/bits/char_traits.h ****       typedef streamoff         off_type;
 296:/opt/gcc-arm-none-eabi-9-2020-q2/arm-none-eabi/include/c++/9.3.1/bits/char_traits.h ****       typedef mbstate_t         state_type;
 297:/opt/gcc-arm-none-eabi-9-2020-q2/arm-none-eabi/include/c++/9.3.1/bits/char_traits.h **** 
 298:/opt/gcc-arm-none-eabi-9-2020-q2/arm-none-eabi/include/c++/9.3.1/bits/char_traits.h ****       static _GLIBCXX17_CONSTEXPR void
 299:/opt/gcc-arm-none-eabi-9-2020-q2/arm-none-eabi/include/c++/9.3.1/bits/char_traits.h ****       assign(char_type& __c1, const char_type& __c2) _GLIBCXX_NOEXCEPT
 300:/opt/gcc-arm-none-eabi-9-2020-q2/arm-none-eabi/include/c++/9.3.1/bits/char_traits.h ****       { __c1 = __c2; }
 301:/opt/gcc-arm-none-eabi-9-2020-q2/arm-none-eabi/include/c++/9.3.1/bits/char_traits.h **** 
 302:/opt/gcc-arm-none-eabi-9-2020-q2/arm-none-eabi/include/c++/9.3.1/bits/char_traits.h ****       static _GLIBCXX_CONSTEXPR bool
 303:/opt/gcc-arm-none-eabi-9-2020-q2/arm-none-eabi/include/c++/9.3.1/bits/char_traits.h ****       eq(const char_type& __c1, const char_type& __c2) _GLIBCXX_NOEXCEPT
 304:/opt/gcc-arm-none-eabi-9-2020-q2/arm-none-eabi/include/c++/9.3.1/bits/char_traits.h ****       { return __c1 == __c2; }
 305:/opt/gcc-arm-none-eabi-9-2020-q2/arm-none-eabi/include/c++/9.3.1/bits/char_traits.h **** 
 306:/opt/gcc-arm-none-eabi-9-2020-q2/arm-none-eabi/include/c++/9.3.1/bits/char_traits.h ****       static _GLIBCXX_CONSTEXPR bool
 307:/opt/gcc-arm-none-eabi-9-2020-q2/arm-none-eabi/include/c++/9.3.1/bits/char_traits.h ****       lt(const char_type& __c1, const char_type& __c2) _GLIBCXX_NOEXCEPT
 308:/opt/gcc-arm-none-eabi-9-2020-q2/arm-none-eabi/include/c++/9.3.1/bits/char_traits.h ****       {
 309:/opt/gcc-arm-none-eabi-9-2020-q2/arm-none-eabi/include/c++/9.3.1/bits/char_traits.h **** 	// LWG 467.
 310:/opt/gcc-arm-none-eabi-9-2020-q2/arm-none-eabi/include/c++/9.3.1/bits/char_traits.h **** 	return (static_cast<unsigned char>(__c1)
 311:/opt/gcc-arm-none-eabi-9-2020-q2/arm-none-eabi/include/c++/9.3.1/bits/char_traits.h **** 		< static_cast<unsigned char>(__c2));
 312:/opt/gcc-arm-none-eabi-9-2020-q2/arm-none-eabi/include/c++/9.3.1/bits/char_traits.h ****       }
 313:/opt/gcc-arm-none-eabi-9-2020-q2/arm-none-eabi/include/c++/9.3.1/bits/char_traits.h **** 
ARM GAS  /tmp/ccSnm6QV.s 			page 26


 314:/opt/gcc-arm-none-eabi-9-2020-q2/arm-none-eabi/include/c++/9.3.1/bits/char_traits.h ****       static _GLIBCXX17_CONSTEXPR int
 315:/opt/gcc-arm-none-eabi-9-2020-q2/arm-none-eabi/include/c++/9.3.1/bits/char_traits.h ****       compare(const char_type* __s1, const char_type* __s2, size_t __n)
 316:/opt/gcc-arm-none-eabi-9-2020-q2/arm-none-eabi/include/c++/9.3.1/bits/char_traits.h ****       {
 317:/opt/gcc-arm-none-eabi-9-2020-q2/arm-none-eabi/include/c++/9.3.1/bits/char_traits.h **** 	if (__n == 0)
 318:/opt/gcc-arm-none-eabi-9-2020-q2/arm-none-eabi/include/c++/9.3.1/bits/char_traits.h **** 	  return 0;
 319:/opt/gcc-arm-none-eabi-9-2020-q2/arm-none-eabi/include/c++/9.3.1/bits/char_traits.h **** #if __cplusplus >= 201703L
 320:/opt/gcc-arm-none-eabi-9-2020-q2/arm-none-eabi/include/c++/9.3.1/bits/char_traits.h **** 	if (__builtin_constant_p(__n)
 321:/opt/gcc-arm-none-eabi-9-2020-q2/arm-none-eabi/include/c++/9.3.1/bits/char_traits.h **** 	    && __constant_char_array_p(__s1, __n)
 322:/opt/gcc-arm-none-eabi-9-2020-q2/arm-none-eabi/include/c++/9.3.1/bits/char_traits.h **** 	    && __constant_char_array_p(__s2, __n))
 323:/opt/gcc-arm-none-eabi-9-2020-q2/arm-none-eabi/include/c++/9.3.1/bits/char_traits.h **** 	  return __gnu_cxx::char_traits<char_type>::compare(__s1, __s2, __n);
 324:/opt/gcc-arm-none-eabi-9-2020-q2/arm-none-eabi/include/c++/9.3.1/bits/char_traits.h **** #endif
 325:/opt/gcc-arm-none-eabi-9-2020-q2/arm-none-eabi/include/c++/9.3.1/bits/char_traits.h **** 	return __builtin_memcmp(__s1, __s2, __n);
 326:/opt/gcc-arm-none-eabi-9-2020-q2/arm-none-eabi/include/c++/9.3.1/bits/char_traits.h ****       }
 327:/opt/gcc-arm-none-eabi-9-2020-q2/arm-none-eabi/include/c++/9.3.1/bits/char_traits.h **** 
 328:/opt/gcc-arm-none-eabi-9-2020-q2/arm-none-eabi/include/c++/9.3.1/bits/char_traits.h ****       static _GLIBCXX17_CONSTEXPR size_t
 329:/opt/gcc-arm-none-eabi-9-2020-q2/arm-none-eabi/include/c++/9.3.1/bits/char_traits.h ****       length(const char_type* __s)
 330:/opt/gcc-arm-none-eabi-9-2020-q2/arm-none-eabi/include/c++/9.3.1/bits/char_traits.h ****       {
 331:/opt/gcc-arm-none-eabi-9-2020-q2/arm-none-eabi/include/c++/9.3.1/bits/char_traits.h **** #if __cplusplus >= 201703L
 332:/opt/gcc-arm-none-eabi-9-2020-q2/arm-none-eabi/include/c++/9.3.1/bits/char_traits.h **** 	if (__constant_string_p(__s))
 333:/opt/gcc-arm-none-eabi-9-2020-q2/arm-none-eabi/include/c++/9.3.1/bits/char_traits.h **** 	  return __gnu_cxx::char_traits<char_type>::length(__s);
 334:/opt/gcc-arm-none-eabi-9-2020-q2/arm-none-eabi/include/c++/9.3.1/bits/char_traits.h **** #endif
 335:/opt/gcc-arm-none-eabi-9-2020-q2/arm-none-eabi/include/c++/9.3.1/bits/char_traits.h **** 	return __builtin_strlen(__s);
 336:/opt/gcc-arm-none-eabi-9-2020-q2/arm-none-eabi/include/c++/9.3.1/bits/char_traits.h ****       }
 337:/opt/gcc-arm-none-eabi-9-2020-q2/arm-none-eabi/include/c++/9.3.1/bits/char_traits.h **** 
 338:/opt/gcc-arm-none-eabi-9-2020-q2/arm-none-eabi/include/c++/9.3.1/bits/char_traits.h ****       static _GLIBCXX17_CONSTEXPR const char_type*
 339:/opt/gcc-arm-none-eabi-9-2020-q2/arm-none-eabi/include/c++/9.3.1/bits/char_traits.h ****       find(const char_type* __s, size_t __n, const char_type& __a)
 340:/opt/gcc-arm-none-eabi-9-2020-q2/arm-none-eabi/include/c++/9.3.1/bits/char_traits.h ****       {
 341:/opt/gcc-arm-none-eabi-9-2020-q2/arm-none-eabi/include/c++/9.3.1/bits/char_traits.h **** 	if (__n == 0)
 342:/opt/gcc-arm-none-eabi-9-2020-q2/arm-none-eabi/include/c++/9.3.1/bits/char_traits.h **** 	  return 0;
 343:/opt/gcc-arm-none-eabi-9-2020-q2/arm-none-eabi/include/c++/9.3.1/bits/char_traits.h **** #if __cplusplus >= 201703L
 344:/opt/gcc-arm-none-eabi-9-2020-q2/arm-none-eabi/include/c++/9.3.1/bits/char_traits.h **** 	if (__builtin_constant_p(__n)
 345:/opt/gcc-arm-none-eabi-9-2020-q2/arm-none-eabi/include/c++/9.3.1/bits/char_traits.h **** 	    && __builtin_constant_p(__a)
 346:/opt/gcc-arm-none-eabi-9-2020-q2/arm-none-eabi/include/c++/9.3.1/bits/char_traits.h **** 	    && __constant_char_array_p(__s, __n))
 347:/opt/gcc-arm-none-eabi-9-2020-q2/arm-none-eabi/include/c++/9.3.1/bits/char_traits.h **** 	  return __gnu_cxx::char_traits<char_type>::find(__s, __n, __a);
 348:/opt/gcc-arm-none-eabi-9-2020-q2/arm-none-eabi/include/c++/9.3.1/bits/char_traits.h **** #endif
 349:/opt/gcc-arm-none-eabi-9-2020-q2/arm-none-eabi/include/c++/9.3.1/bits/char_traits.h **** 	return static_cast<const char_type*>(__builtin_memchr(__s, __a, __n));
 350:/opt/gcc-arm-none-eabi-9-2020-q2/arm-none-eabi/include/c++/9.3.1/bits/char_traits.h ****       }
 351:/opt/gcc-arm-none-eabi-9-2020-q2/arm-none-eabi/include/c++/9.3.1/bits/char_traits.h **** 
 352:/opt/gcc-arm-none-eabi-9-2020-q2/arm-none-eabi/include/c++/9.3.1/bits/char_traits.h ****       static char_type*
 353:/opt/gcc-arm-none-eabi-9-2020-q2/arm-none-eabi/include/c++/9.3.1/bits/char_traits.h ****       move(char_type* __s1, const char_type* __s2, size_t __n)
 354:/opt/gcc-arm-none-eabi-9-2020-q2/arm-none-eabi/include/c++/9.3.1/bits/char_traits.h ****       {
 355:/opt/gcc-arm-none-eabi-9-2020-q2/arm-none-eabi/include/c++/9.3.1/bits/char_traits.h **** 	if (__n == 0)
 356:/opt/gcc-arm-none-eabi-9-2020-q2/arm-none-eabi/include/c++/9.3.1/bits/char_traits.h **** 	  return __s1;
 357:/opt/gcc-arm-none-eabi-9-2020-q2/arm-none-eabi/include/c++/9.3.1/bits/char_traits.h **** 	return static_cast<char_type*>(__builtin_memmove(__s1, __s2, __n));
 358:/opt/gcc-arm-none-eabi-9-2020-q2/arm-none-eabi/include/c++/9.3.1/bits/char_traits.h ****       }
 359:/opt/gcc-arm-none-eabi-9-2020-q2/arm-none-eabi/include/c++/9.3.1/bits/char_traits.h **** 
 360:/opt/gcc-arm-none-eabi-9-2020-q2/arm-none-eabi/include/c++/9.3.1/bits/char_traits.h ****       static char_type*
 361:/opt/gcc-arm-none-eabi-9-2020-q2/arm-none-eabi/include/c++/9.3.1/bits/char_traits.h ****       copy(char_type* __s1, const char_type* __s2, size_t __n)
 306              		.loc 5 361 7 is_stmt 1 view .LVU59
 307              	.LBB1141:
 362:/opt/gcc-arm-none-eabi-9-2020-q2/arm-none-eabi/include/c++/9.3.1/bits/char_traits.h ****       {
 363:/opt/gcc-arm-none-eabi-9-2020-q2/arm-none-eabi/include/c++/9.3.1/bits/char_traits.h **** 	if (__n == 0)
 308              		.loc 5 363 2 view .LVU60
 309 0018 002C     		cmp	r4, #0
 310 001a 14D0     		beq	.L14
 364:/opt/gcc-arm-none-eabi-9-2020-q2/arm-none-eabi/include/c++/9.3.1/bits/char_traits.h **** 	  return __s1;
 365:/opt/gcc-arm-none-eabi-9-2020-q2/arm-none-eabi/include/c++/9.3.1/bits/char_traits.h **** 	return static_cast<char_type*>(__builtin_memcpy(__s1, __s2, __n));
ARM GAS  /tmp/ccSnm6QV.s 			page 27


 311              		.loc 5 365 2 view .LVU61
 312              		.loc 5 365 49 is_stmt 0 view .LVU62
 313 001c 2200     		movs	r2, r4
 314 001e 3100     		movs	r1, r6
 315 0020 FFF7FEFF 		bl	memcpy
 316              	.LVL26:
 317              		.loc 5 365 66 view .LVU63
 318 0024 0FE0     		b	.L14
 319              	.LVL27:
 320              	.L15:
 321              		.loc 5 365 66 view .LVU64
 322              	.LBE1141:
 323              	.LBE1140:
 324              	.LBE1139:
 325              	.LBE1138:
 326              	.LBE1137:
 211:/opt/gcc-arm-none-eabi-9-2020-q2/arm-none-eabi/include/c++/9.3.1/bits/basic_string.tcc **** 	  std::__throw_logic_error(__N("basic_string::"
 327              		.loc 2 211 42 discriminator 1 view .LVU65
 328 0026 9142     		cmp	r1, r2
 329 0028 EFD0     		beq	.L11
 212:/opt/gcc-arm-none-eabi-9-2020-q2/arm-none-eabi/include/c++/9.3.1/bits/basic_string.tcc **** 				       "_M_construct null not valid"));
 330              		.loc 2 212 28 view .LVU66
 331 002a 0B48     		ldr	r0, .L18
 332              	.LVL28:
 212:/opt/gcc-arm-none-eabi-9-2020-q2/arm-none-eabi/include/c++/9.3.1/bits/basic_string.tcc **** 				       "_M_construct null not valid"));
 333              		.loc 2 212 28 view .LVU67
 334 002c FFF7FEFF 		bl	_ZSt19__throw_logic_errorPKc
 335              	.LVL29:
 336              	.L16:
 218:/opt/gcc-arm-none-eabi-9-2020-q2/arm-none-eabi/include/c++/9.3.1/bits/basic_string.tcc **** 	  {
 219:/opt/gcc-arm-none-eabi-9-2020-q2/arm-none-eabi/include/c++/9.3.1/bits/basic_string.tcc **** 	    _M_data(_M_create(__dnew, size_type(0)));
 337              		.loc 2 219 6 view .LVU68
 338 0030 0022     		movs	r2, #0
 339              	.LVL30:
 340              		.loc 2 219 6 view .LVU69
 341 0032 01A9     		add	r1, sp, #4
 342              	.LVL31:
 343              		.loc 2 219 6 view .LVU70
 344 0034 2800     		movs	r0, r5
 345              	.LVL32:
 346              		.loc 2 219 6 view .LVU71
 347 0036 FFF7FEFF 		bl	_ZNSt7__cxx1112basic_stringIcSt11char_traitsIcESaIcEE9_M_createERjj
 348              	.LVL33:
 349              	.LBB1146:
 350              	.LBI1146:
 178:/opt/gcc-arm-none-eabi-9-2020-q2/arm-none-eabi/include/c++/9.3.1/bits/basic_string.h ****       { _M_dataplus._M_p = __p; }
 351              		.loc 4 178 7 is_stmt 1 view .LVU72
 352              	.LBB1147:
 179:/opt/gcc-arm-none-eabi-9-2020-q2/arm-none-eabi/include/c++/9.3.1/bits/basic_string.h **** 
 353              		.loc 4 179 9 is_stmt 0 view .LVU73
 354 003a 2860     		str	r0, [r5]
 355              	.LVL34:
 179:/opt/gcc-arm-none-eabi-9-2020-q2/arm-none-eabi/include/c++/9.3.1/bits/basic_string.h **** 
 356              		.loc 4 179 9 view .LVU74
 357              	.LBE1147:
 358              	.LBE1146:
 359              	.LBB1148:
ARM GAS  /tmp/ccSnm6QV.s 			page 28


 360              	.LBI1148:
 210:/opt/gcc-arm-none-eabi-9-2020-q2/arm-none-eabi/include/c++/9.3.1/bits/basic_string.h ****       { _M_allocated_capacity = __capacity; }
 361              		.loc 4 210 7 is_stmt 1 view .LVU75
 362              	.LBB1149:
 211:/opt/gcc-arm-none-eabi-9-2020-q2/arm-none-eabi/include/c++/9.3.1/bits/basic_string.h **** 
 363              		.loc 4 211 9 is_stmt 0 view .LVU76
 364 003c 019B     		ldr	r3, [sp, #4]
 365 003e AB60     		str	r3, [r5, #8]
 211:/opt/gcc-arm-none-eabi-9-2020-q2/arm-none-eabi/include/c++/9.3.1/bits/basic_string.h **** 
 366              		.loc 4 211 45 view .LVU77
 367 0040 E7E7     		b	.L12
 368              	.LVL35:
 369              	.L17:
 211:/opt/gcc-arm-none-eabi-9-2020-q2/arm-none-eabi/include/c++/9.3.1/bits/basic_string.h **** 
 370              		.loc 4 211 45 view .LVU78
 371              	.LBE1149:
 372              	.LBE1148:
 373              	.LBB1150:
 374              	.LBB1145:
 375              	.LBB1144:
 376              	.LBB1142:
 377              	.LBI1142:
 299:/opt/gcc-arm-none-eabi-9-2020-q2/arm-none-eabi/include/c++/9.3.1/bits/char_traits.h ****       { __c1 = __c2; }
 378              		.loc 5 299 7 is_stmt 1 view .LVU79
 379              	.LBB1143:
 300:/opt/gcc-arm-none-eabi-9-2020-q2/arm-none-eabi/include/c++/9.3.1/bits/char_traits.h **** 
 380              		.loc 5 300 9 view .LVU80
 300:/opt/gcc-arm-none-eabi-9-2020-q2/arm-none-eabi/include/c++/9.3.1/bits/char_traits.h **** 
 381              		.loc 5 300 16 is_stmt 0 view .LVU81
 382 0042 3378     		ldrb	r3, [r6]
 300:/opt/gcc-arm-none-eabi-9-2020-q2/arm-none-eabi/include/c++/9.3.1/bits/char_traits.h **** 
 383              		.loc 5 300 14 view .LVU82
 384 0044 0370     		strb	r3, [r0]
 385              	.LVL36:
 386              	.L14:
 300:/opt/gcc-arm-none-eabi-9-2020-q2/arm-none-eabi/include/c++/9.3.1/bits/char_traits.h **** 
 387              		.loc 5 300 14 view .LVU83
 388              	.LBE1143:
 389              	.LBE1142:
 390              	.LBE1144:
 391              	.LBE1145:
 392              	.LBE1150:
 220:/opt/gcc-arm-none-eabi-9-2020-q2/arm-none-eabi/include/c++/9.3.1/bits/basic_string.tcc **** 	    _M_capacity(__dnew);
 221:/opt/gcc-arm-none-eabi-9-2020-q2/arm-none-eabi/include/c++/9.3.1/bits/basic_string.tcc **** 	  }
 222:/opt/gcc-arm-none-eabi-9-2020-q2/arm-none-eabi/include/c++/9.3.1/bits/basic_string.tcc **** 
 223:/opt/gcc-arm-none-eabi-9-2020-q2/arm-none-eabi/include/c++/9.3.1/bits/basic_string.tcc **** 	// Check for out_of_range and length_error exceptions.
 224:/opt/gcc-arm-none-eabi-9-2020-q2/arm-none-eabi/include/c++/9.3.1/bits/basic_string.tcc **** 	__try
 225:/opt/gcc-arm-none-eabi-9-2020-q2/arm-none-eabi/include/c++/9.3.1/bits/basic_string.tcc **** 	  { this->_S_copy_chars(_M_data(), __beg, __end); }
 226:/opt/gcc-arm-none-eabi-9-2020-q2/arm-none-eabi/include/c++/9.3.1/bits/basic_string.tcc **** 	__catch(...)
 227:/opt/gcc-arm-none-eabi-9-2020-q2/arm-none-eabi/include/c++/9.3.1/bits/basic_string.tcc **** 	  {
 228:/opt/gcc-arm-none-eabi-9-2020-q2/arm-none-eabi/include/c++/9.3.1/bits/basic_string.tcc **** 	    _M_dispose();
 229:/opt/gcc-arm-none-eabi-9-2020-q2/arm-none-eabi/include/c++/9.3.1/bits/basic_string.tcc **** 	    __throw_exception_again;
 230:/opt/gcc-arm-none-eabi-9-2020-q2/arm-none-eabi/include/c++/9.3.1/bits/basic_string.tcc **** 	  }
 231:/opt/gcc-arm-none-eabi-9-2020-q2/arm-none-eabi/include/c++/9.3.1/bits/basic_string.tcc **** 
 232:/opt/gcc-arm-none-eabi-9-2020-q2/arm-none-eabi/include/c++/9.3.1/bits/basic_string.tcc **** 	_M_set_length(__dnew);
 393              		.loc 2 232 2 view .LVU84
 394 0046 019A     		ldr	r2, [sp, #4]
ARM GAS  /tmp/ccSnm6QV.s 			page 29


 395              	.LVL37:
 396              	.LBB1151:
 397              	.LBI1151:
 214:/opt/gcc-arm-none-eabi-9-2020-q2/arm-none-eabi/include/c++/9.3.1/bits/basic_string.h ****       {
 398              		.loc 4 214 7 is_stmt 1 view .LVU85
 399              	.LBB1152:
 400              	.LBB1153:
 401              	.LBI1153:
 182:/opt/gcc-arm-none-eabi-9-2020-q2/arm-none-eabi/include/c++/9.3.1/bits/basic_string.h ****       { _M_string_length = __length; }
 402              		.loc 4 182 7 view .LVU86
 403              	.LBB1154:
 183:/opt/gcc-arm-none-eabi-9-2020-q2/arm-none-eabi/include/c++/9.3.1/bits/basic_string.h **** 
 404              		.loc 4 183 9 is_stmt 0 view .LVU87
 405 0048 6A60     		str	r2, [r5, #4]
 406              	.LVL38:
 183:/opt/gcc-arm-none-eabi-9-2020-q2/arm-none-eabi/include/c++/9.3.1/bits/basic_string.h **** 
 407              		.loc 4 183 9 view .LVU88
 408              	.LBE1154:
 409              	.LBE1153:
 410              	.LBB1155:
 411              	.LBI1155:
 186:/opt/gcc-arm-none-eabi-9-2020-q2/arm-none-eabi/include/c++/9.3.1/bits/basic_string.h ****       { return _M_dataplus._M_p; }
 412              		.loc 4 186 7 is_stmt 1 view .LVU89
 413              	.LBB1156:
 187:/opt/gcc-arm-none-eabi-9-2020-q2/arm-none-eabi/include/c++/9.3.1/bits/basic_string.h **** 
 414              		.loc 4 187 28 is_stmt 0 view .LVU90
 415 004a 2B68     		ldr	r3, [r5]
 416              	.LVL39:
 187:/opt/gcc-arm-none-eabi-9-2020-q2/arm-none-eabi/include/c++/9.3.1/bits/basic_string.h **** 
 417              		.loc 4 187 28 view .LVU91
 418              	.LBE1156:
 419              	.LBE1155:
 217:/opt/gcc-arm-none-eabi-9-2020-q2/arm-none-eabi/include/c++/9.3.1/bits/basic_string.h ****       }
 420              		.loc 4 217 31 view .LVU92
 421 004c 9B18     		adds	r3, r3, r2
 422              	.LVL40:
 423              	.LBB1157:
 424              	.LBI1157:
 299:/opt/gcc-arm-none-eabi-9-2020-q2/arm-none-eabi/include/c++/9.3.1/bits/char_traits.h ****       { __c1 = __c2; }
 425              		.loc 5 299 7 is_stmt 1 view .LVU93
 426              	.LBB1158:
 300:/opt/gcc-arm-none-eabi-9-2020-q2/arm-none-eabi/include/c++/9.3.1/bits/char_traits.h **** 
 427              		.loc 5 300 9 view .LVU94
 300:/opt/gcc-arm-none-eabi-9-2020-q2/arm-none-eabi/include/c++/9.3.1/bits/char_traits.h **** 
 428              		.loc 5 300 14 is_stmt 0 view .LVU95
 429 004e 0022     		movs	r2, #0
 430              	.LVL41:
 300:/opt/gcc-arm-none-eabi-9-2020-q2/arm-none-eabi/include/c++/9.3.1/bits/char_traits.h **** 
 431              		.loc 5 300 14 view .LVU96
 432 0050 1A70     		strb	r2, [r3]
 433              	.LVL42:
 300:/opt/gcc-arm-none-eabi-9-2020-q2/arm-none-eabi/include/c++/9.3.1/bits/char_traits.h **** 
 434              		.loc 5 300 14 view .LVU97
 435              	.LBE1158:
 436              	.LBE1157:
 437              	.LBE1152:
 438              	.LBE1151:
ARM GAS  /tmp/ccSnm6QV.s 			page 30


 233:/opt/gcc-arm-none-eabi-9-2020-q2/arm-none-eabi/include/c++/9.3.1/bits/basic_string.tcc ****       }
 439              		.loc 2 233 7 view .LVU98
 440 0052 02B0     		add	sp, sp, #8
 441              		@ sp needed
 442              	.LVL43:
 443              	.LVL44:
 444              		.loc 2 233 7 view .LVU99
 445 0054 70BD     		pop	{r4, r5, r6, pc}
 446              	.L19:
 447 0056 C046     		.align	2
 448              	.L18:
 449 0058 00000000 		.word	.LC0
 450              		.cfi_endproc
 451              	.LFE4490:
 453              		.section	.text._ZNSt8_Rb_treeIiSt4pairIKibESt10_Select1stIS2_ESt4lessIiESaIS2_EE8_M_eraseEPSt13_Rb
 454              		.align	1
 455              		.weak	_ZNSt8_Rb_treeIiSt4pairIKibESt10_Select1stIS2_ESt4lessIiESaIS2_EE8_M_eraseEPSt13_Rb_tree_nod
 456              		.syntax unified
 457              		.code	16
 458              		.thumb_func
 459              		.fpu softvfp
 461              	_ZNSt8_Rb_treeIiSt4pairIKibESt10_Select1stIS2_ESt4lessIiESaIS2_EE8_M_eraseEPSt13_Rb_tree_nodeIS2_E:
 462              	.LVL45:
 463              	.LFB4731:
 464              		.file 6 "/opt/gcc-arm-none-eabi-9-2020-q2/arm-none-eabi/include/c++/9.3.1/bits/stl_tree.h"
   1:/opt/gcc-arm-none-eabi-9-2020-q2/arm-none-eabi/include/c++/9.3.1/bits/stl_tree.h **** // RB tree implementation -*- C++ -*-
   2:/opt/gcc-arm-none-eabi-9-2020-q2/arm-none-eabi/include/c++/9.3.1/bits/stl_tree.h **** 
   3:/opt/gcc-arm-none-eabi-9-2020-q2/arm-none-eabi/include/c++/9.3.1/bits/stl_tree.h **** // Copyright (C) 2001-2019 Free Software Foundation, Inc.
   4:/opt/gcc-arm-none-eabi-9-2020-q2/arm-none-eabi/include/c++/9.3.1/bits/stl_tree.h **** //
   5:/opt/gcc-arm-none-eabi-9-2020-q2/arm-none-eabi/include/c++/9.3.1/bits/stl_tree.h **** // This file is part of the GNU ISO C++ Library.  This library is free
   6:/opt/gcc-arm-none-eabi-9-2020-q2/arm-none-eabi/include/c++/9.3.1/bits/stl_tree.h **** // software; you can redistribute it and/or modify it under the
   7:/opt/gcc-arm-none-eabi-9-2020-q2/arm-none-eabi/include/c++/9.3.1/bits/stl_tree.h **** // terms of the GNU General Public License as published by the
   8:/opt/gcc-arm-none-eabi-9-2020-q2/arm-none-eabi/include/c++/9.3.1/bits/stl_tree.h **** // Free Software Foundation; either version 3, or (at your option)
   9:/opt/gcc-arm-none-eabi-9-2020-q2/arm-none-eabi/include/c++/9.3.1/bits/stl_tree.h **** // any later version.
  10:/opt/gcc-arm-none-eabi-9-2020-q2/arm-none-eabi/include/c++/9.3.1/bits/stl_tree.h **** 
  11:/opt/gcc-arm-none-eabi-9-2020-q2/arm-none-eabi/include/c++/9.3.1/bits/stl_tree.h **** // This library is distributed in the hope that it will be useful,
  12:/opt/gcc-arm-none-eabi-9-2020-q2/arm-none-eabi/include/c++/9.3.1/bits/stl_tree.h **** // but WITHOUT ANY WARRANTY; without even the implied warranty of
  13:/opt/gcc-arm-none-eabi-9-2020-q2/arm-none-eabi/include/c++/9.3.1/bits/stl_tree.h **** // MERCHANTABILITY or FITNESS FOR A PARTICULAR PURPOSE.  See the
  14:/opt/gcc-arm-none-eabi-9-2020-q2/arm-none-eabi/include/c++/9.3.1/bits/stl_tree.h **** // GNU General Public License for more details.
  15:/opt/gcc-arm-none-eabi-9-2020-q2/arm-none-eabi/include/c++/9.3.1/bits/stl_tree.h **** 
  16:/opt/gcc-arm-none-eabi-9-2020-q2/arm-none-eabi/include/c++/9.3.1/bits/stl_tree.h **** // Under Section 7 of GPL version 3, you are granted additional
  17:/opt/gcc-arm-none-eabi-9-2020-q2/arm-none-eabi/include/c++/9.3.1/bits/stl_tree.h **** // permissions described in the GCC Runtime Library Exception, version
  18:/opt/gcc-arm-none-eabi-9-2020-q2/arm-none-eabi/include/c++/9.3.1/bits/stl_tree.h **** // 3.1, as published by the Free Software Foundation.
  19:/opt/gcc-arm-none-eabi-9-2020-q2/arm-none-eabi/include/c++/9.3.1/bits/stl_tree.h **** 
  20:/opt/gcc-arm-none-eabi-9-2020-q2/arm-none-eabi/include/c++/9.3.1/bits/stl_tree.h **** // You should have received a copy of the GNU General Public License and
  21:/opt/gcc-arm-none-eabi-9-2020-q2/arm-none-eabi/include/c++/9.3.1/bits/stl_tree.h **** // a copy of the GCC Runtime Library Exception along with this program;
  22:/opt/gcc-arm-none-eabi-9-2020-q2/arm-none-eabi/include/c++/9.3.1/bits/stl_tree.h **** // see the files COPYING3 and COPYING.RUNTIME respectively.  If not, see
  23:/opt/gcc-arm-none-eabi-9-2020-q2/arm-none-eabi/include/c++/9.3.1/bits/stl_tree.h **** // <http://www.gnu.org/licenses/>.
  24:/opt/gcc-arm-none-eabi-9-2020-q2/arm-none-eabi/include/c++/9.3.1/bits/stl_tree.h **** 
  25:/opt/gcc-arm-none-eabi-9-2020-q2/arm-none-eabi/include/c++/9.3.1/bits/stl_tree.h **** /*
  26:/opt/gcc-arm-none-eabi-9-2020-q2/arm-none-eabi/include/c++/9.3.1/bits/stl_tree.h ****  *
  27:/opt/gcc-arm-none-eabi-9-2020-q2/arm-none-eabi/include/c++/9.3.1/bits/stl_tree.h ****  * Copyright (c) 1996,1997
  28:/opt/gcc-arm-none-eabi-9-2020-q2/arm-none-eabi/include/c++/9.3.1/bits/stl_tree.h ****  * Silicon Graphics Computer Systems, Inc.
  29:/opt/gcc-arm-none-eabi-9-2020-q2/arm-none-eabi/include/c++/9.3.1/bits/stl_tree.h ****  *
  30:/opt/gcc-arm-none-eabi-9-2020-q2/arm-none-eabi/include/c++/9.3.1/bits/stl_tree.h ****  * Permission to use, copy, modify, distribute and sell this software
  31:/opt/gcc-arm-none-eabi-9-2020-q2/arm-none-eabi/include/c++/9.3.1/bits/stl_tree.h ****  * and its documentation for any purpose is hereby granted without fee,
  32:/opt/gcc-arm-none-eabi-9-2020-q2/arm-none-eabi/include/c++/9.3.1/bits/stl_tree.h ****  * provided that the above copyright notice appear in all copies and
ARM GAS  /tmp/ccSnm6QV.s 			page 31


  33:/opt/gcc-arm-none-eabi-9-2020-q2/arm-none-eabi/include/c++/9.3.1/bits/stl_tree.h ****  * that both that copyright notice and this permission notice appear
  34:/opt/gcc-arm-none-eabi-9-2020-q2/arm-none-eabi/include/c++/9.3.1/bits/stl_tree.h ****  * in supporting documentation.  Silicon Graphics makes no
  35:/opt/gcc-arm-none-eabi-9-2020-q2/arm-none-eabi/include/c++/9.3.1/bits/stl_tree.h ****  * representations about the suitability of this software for any
  36:/opt/gcc-arm-none-eabi-9-2020-q2/arm-none-eabi/include/c++/9.3.1/bits/stl_tree.h ****  * purpose.  It is provided "as is" without express or implied warranty.
  37:/opt/gcc-arm-none-eabi-9-2020-q2/arm-none-eabi/include/c++/9.3.1/bits/stl_tree.h ****  *
  38:/opt/gcc-arm-none-eabi-9-2020-q2/arm-none-eabi/include/c++/9.3.1/bits/stl_tree.h ****  *
  39:/opt/gcc-arm-none-eabi-9-2020-q2/arm-none-eabi/include/c++/9.3.1/bits/stl_tree.h ****  * Copyright (c) 1994
  40:/opt/gcc-arm-none-eabi-9-2020-q2/arm-none-eabi/include/c++/9.3.1/bits/stl_tree.h ****  * Hewlett-Packard Company
  41:/opt/gcc-arm-none-eabi-9-2020-q2/arm-none-eabi/include/c++/9.3.1/bits/stl_tree.h ****  *
  42:/opt/gcc-arm-none-eabi-9-2020-q2/arm-none-eabi/include/c++/9.3.1/bits/stl_tree.h ****  * Permission to use, copy, modify, distribute and sell this software
  43:/opt/gcc-arm-none-eabi-9-2020-q2/arm-none-eabi/include/c++/9.3.1/bits/stl_tree.h ****  * and its documentation for any purpose is hereby granted without fee,
  44:/opt/gcc-arm-none-eabi-9-2020-q2/arm-none-eabi/include/c++/9.3.1/bits/stl_tree.h ****  * provided that the above copyright notice appear in all copies and
  45:/opt/gcc-arm-none-eabi-9-2020-q2/arm-none-eabi/include/c++/9.3.1/bits/stl_tree.h ****  * that both that copyright notice and this permission notice appear
  46:/opt/gcc-arm-none-eabi-9-2020-q2/arm-none-eabi/include/c++/9.3.1/bits/stl_tree.h ****  * in supporting documentation.  Hewlett-Packard Company makes no
  47:/opt/gcc-arm-none-eabi-9-2020-q2/arm-none-eabi/include/c++/9.3.1/bits/stl_tree.h ****  * representations about the suitability of this software for any
  48:/opt/gcc-arm-none-eabi-9-2020-q2/arm-none-eabi/include/c++/9.3.1/bits/stl_tree.h ****  * purpose.  It is provided "as is" without express or implied warranty.
  49:/opt/gcc-arm-none-eabi-9-2020-q2/arm-none-eabi/include/c++/9.3.1/bits/stl_tree.h ****  *
  50:/opt/gcc-arm-none-eabi-9-2020-q2/arm-none-eabi/include/c++/9.3.1/bits/stl_tree.h ****  *
  51:/opt/gcc-arm-none-eabi-9-2020-q2/arm-none-eabi/include/c++/9.3.1/bits/stl_tree.h ****  */
  52:/opt/gcc-arm-none-eabi-9-2020-q2/arm-none-eabi/include/c++/9.3.1/bits/stl_tree.h **** 
  53:/opt/gcc-arm-none-eabi-9-2020-q2/arm-none-eabi/include/c++/9.3.1/bits/stl_tree.h **** /** @file bits/stl_tree.h
  54:/opt/gcc-arm-none-eabi-9-2020-q2/arm-none-eabi/include/c++/9.3.1/bits/stl_tree.h ****  *  This is an internal header file, included by other library headers.
  55:/opt/gcc-arm-none-eabi-9-2020-q2/arm-none-eabi/include/c++/9.3.1/bits/stl_tree.h ****  *  Do not attempt to use it directly. @headername{map,set}
  56:/opt/gcc-arm-none-eabi-9-2020-q2/arm-none-eabi/include/c++/9.3.1/bits/stl_tree.h ****  */
  57:/opt/gcc-arm-none-eabi-9-2020-q2/arm-none-eabi/include/c++/9.3.1/bits/stl_tree.h **** 
  58:/opt/gcc-arm-none-eabi-9-2020-q2/arm-none-eabi/include/c++/9.3.1/bits/stl_tree.h **** #ifndef _STL_TREE_H
  59:/opt/gcc-arm-none-eabi-9-2020-q2/arm-none-eabi/include/c++/9.3.1/bits/stl_tree.h **** #define _STL_TREE_H 1
  60:/opt/gcc-arm-none-eabi-9-2020-q2/arm-none-eabi/include/c++/9.3.1/bits/stl_tree.h **** 
  61:/opt/gcc-arm-none-eabi-9-2020-q2/arm-none-eabi/include/c++/9.3.1/bits/stl_tree.h **** #pragma GCC system_header
  62:/opt/gcc-arm-none-eabi-9-2020-q2/arm-none-eabi/include/c++/9.3.1/bits/stl_tree.h **** 
  63:/opt/gcc-arm-none-eabi-9-2020-q2/arm-none-eabi/include/c++/9.3.1/bits/stl_tree.h **** #include <bits/stl_algobase.h>
  64:/opt/gcc-arm-none-eabi-9-2020-q2/arm-none-eabi/include/c++/9.3.1/bits/stl_tree.h **** #include <bits/allocator.h>
  65:/opt/gcc-arm-none-eabi-9-2020-q2/arm-none-eabi/include/c++/9.3.1/bits/stl_tree.h **** #include <bits/stl_function.h>
  66:/opt/gcc-arm-none-eabi-9-2020-q2/arm-none-eabi/include/c++/9.3.1/bits/stl_tree.h **** #include <bits/cpp_type_traits.h>
  67:/opt/gcc-arm-none-eabi-9-2020-q2/arm-none-eabi/include/c++/9.3.1/bits/stl_tree.h **** #include <ext/alloc_traits.h>
  68:/opt/gcc-arm-none-eabi-9-2020-q2/arm-none-eabi/include/c++/9.3.1/bits/stl_tree.h **** #if __cplusplus >= 201103L
  69:/opt/gcc-arm-none-eabi-9-2020-q2/arm-none-eabi/include/c++/9.3.1/bits/stl_tree.h **** # include <ext/aligned_buffer.h>
  70:/opt/gcc-arm-none-eabi-9-2020-q2/arm-none-eabi/include/c++/9.3.1/bits/stl_tree.h **** #endif
  71:/opt/gcc-arm-none-eabi-9-2020-q2/arm-none-eabi/include/c++/9.3.1/bits/stl_tree.h **** #if __cplusplus > 201402L
  72:/opt/gcc-arm-none-eabi-9-2020-q2/arm-none-eabi/include/c++/9.3.1/bits/stl_tree.h **** # include <bits/node_handle.h>
  73:/opt/gcc-arm-none-eabi-9-2020-q2/arm-none-eabi/include/c++/9.3.1/bits/stl_tree.h **** #endif
  74:/opt/gcc-arm-none-eabi-9-2020-q2/arm-none-eabi/include/c++/9.3.1/bits/stl_tree.h **** 
  75:/opt/gcc-arm-none-eabi-9-2020-q2/arm-none-eabi/include/c++/9.3.1/bits/stl_tree.h **** namespace std _GLIBCXX_VISIBILITY(default)
  76:/opt/gcc-arm-none-eabi-9-2020-q2/arm-none-eabi/include/c++/9.3.1/bits/stl_tree.h **** {
  77:/opt/gcc-arm-none-eabi-9-2020-q2/arm-none-eabi/include/c++/9.3.1/bits/stl_tree.h **** _GLIBCXX_BEGIN_NAMESPACE_VERSION
  78:/opt/gcc-arm-none-eabi-9-2020-q2/arm-none-eabi/include/c++/9.3.1/bits/stl_tree.h **** 
  79:/opt/gcc-arm-none-eabi-9-2020-q2/arm-none-eabi/include/c++/9.3.1/bits/stl_tree.h **** #if __cplusplus > 201103L
  80:/opt/gcc-arm-none-eabi-9-2020-q2/arm-none-eabi/include/c++/9.3.1/bits/stl_tree.h **** # define __cpp_lib_generic_associative_lookup 201304
  81:/opt/gcc-arm-none-eabi-9-2020-q2/arm-none-eabi/include/c++/9.3.1/bits/stl_tree.h **** #endif
  82:/opt/gcc-arm-none-eabi-9-2020-q2/arm-none-eabi/include/c++/9.3.1/bits/stl_tree.h **** 
  83:/opt/gcc-arm-none-eabi-9-2020-q2/arm-none-eabi/include/c++/9.3.1/bits/stl_tree.h ****   // Red-black tree class, designed for use in implementing STL
  84:/opt/gcc-arm-none-eabi-9-2020-q2/arm-none-eabi/include/c++/9.3.1/bits/stl_tree.h ****   // associative containers (set, multiset, map, and multimap). The
  85:/opt/gcc-arm-none-eabi-9-2020-q2/arm-none-eabi/include/c++/9.3.1/bits/stl_tree.h ****   // insertion and deletion algorithms are based on those in Cormen,
  86:/opt/gcc-arm-none-eabi-9-2020-q2/arm-none-eabi/include/c++/9.3.1/bits/stl_tree.h ****   // Leiserson, and Rivest, Introduction to Algorithms (MIT Press,
  87:/opt/gcc-arm-none-eabi-9-2020-q2/arm-none-eabi/include/c++/9.3.1/bits/stl_tree.h ****   // 1990), except that
  88:/opt/gcc-arm-none-eabi-9-2020-q2/arm-none-eabi/include/c++/9.3.1/bits/stl_tree.h ****   //
  89:/opt/gcc-arm-none-eabi-9-2020-q2/arm-none-eabi/include/c++/9.3.1/bits/stl_tree.h ****   // (1) the header cell is maintained with links not only to the root
ARM GAS  /tmp/ccSnm6QV.s 			page 32


  90:/opt/gcc-arm-none-eabi-9-2020-q2/arm-none-eabi/include/c++/9.3.1/bits/stl_tree.h ****   // but also to the leftmost node of the tree, to enable constant
  91:/opt/gcc-arm-none-eabi-9-2020-q2/arm-none-eabi/include/c++/9.3.1/bits/stl_tree.h ****   // time begin(), and to the rightmost node of the tree, to enable
  92:/opt/gcc-arm-none-eabi-9-2020-q2/arm-none-eabi/include/c++/9.3.1/bits/stl_tree.h ****   // linear time performance when used with the generic set algorithms
  93:/opt/gcc-arm-none-eabi-9-2020-q2/arm-none-eabi/include/c++/9.3.1/bits/stl_tree.h ****   // (set_union, etc.)
  94:/opt/gcc-arm-none-eabi-9-2020-q2/arm-none-eabi/include/c++/9.3.1/bits/stl_tree.h ****   //
  95:/opt/gcc-arm-none-eabi-9-2020-q2/arm-none-eabi/include/c++/9.3.1/bits/stl_tree.h ****   // (2) when a node being deleted has two children its successor node
  96:/opt/gcc-arm-none-eabi-9-2020-q2/arm-none-eabi/include/c++/9.3.1/bits/stl_tree.h ****   // is relinked into its place, rather than copied, so that the only
  97:/opt/gcc-arm-none-eabi-9-2020-q2/arm-none-eabi/include/c++/9.3.1/bits/stl_tree.h ****   // iterators invalidated are those referring to the deleted node.
  98:/opt/gcc-arm-none-eabi-9-2020-q2/arm-none-eabi/include/c++/9.3.1/bits/stl_tree.h **** 
  99:/opt/gcc-arm-none-eabi-9-2020-q2/arm-none-eabi/include/c++/9.3.1/bits/stl_tree.h ****   enum _Rb_tree_color { _S_red = false, _S_black = true };
 100:/opt/gcc-arm-none-eabi-9-2020-q2/arm-none-eabi/include/c++/9.3.1/bits/stl_tree.h **** 
 101:/opt/gcc-arm-none-eabi-9-2020-q2/arm-none-eabi/include/c++/9.3.1/bits/stl_tree.h ****   struct _Rb_tree_node_base
 102:/opt/gcc-arm-none-eabi-9-2020-q2/arm-none-eabi/include/c++/9.3.1/bits/stl_tree.h ****   {
 103:/opt/gcc-arm-none-eabi-9-2020-q2/arm-none-eabi/include/c++/9.3.1/bits/stl_tree.h ****     typedef _Rb_tree_node_base* _Base_ptr;
 104:/opt/gcc-arm-none-eabi-9-2020-q2/arm-none-eabi/include/c++/9.3.1/bits/stl_tree.h ****     typedef const _Rb_tree_node_base* _Const_Base_ptr;
 105:/opt/gcc-arm-none-eabi-9-2020-q2/arm-none-eabi/include/c++/9.3.1/bits/stl_tree.h **** 
 106:/opt/gcc-arm-none-eabi-9-2020-q2/arm-none-eabi/include/c++/9.3.1/bits/stl_tree.h ****     _Rb_tree_color	_M_color;
 107:/opt/gcc-arm-none-eabi-9-2020-q2/arm-none-eabi/include/c++/9.3.1/bits/stl_tree.h ****     _Base_ptr		_M_parent;
 108:/opt/gcc-arm-none-eabi-9-2020-q2/arm-none-eabi/include/c++/9.3.1/bits/stl_tree.h ****     _Base_ptr		_M_left;
 109:/opt/gcc-arm-none-eabi-9-2020-q2/arm-none-eabi/include/c++/9.3.1/bits/stl_tree.h ****     _Base_ptr		_M_right;
 110:/opt/gcc-arm-none-eabi-9-2020-q2/arm-none-eabi/include/c++/9.3.1/bits/stl_tree.h **** 
 111:/opt/gcc-arm-none-eabi-9-2020-q2/arm-none-eabi/include/c++/9.3.1/bits/stl_tree.h ****     static _Base_ptr
 112:/opt/gcc-arm-none-eabi-9-2020-q2/arm-none-eabi/include/c++/9.3.1/bits/stl_tree.h ****     _S_minimum(_Base_ptr __x) _GLIBCXX_NOEXCEPT
 113:/opt/gcc-arm-none-eabi-9-2020-q2/arm-none-eabi/include/c++/9.3.1/bits/stl_tree.h ****     {
 114:/opt/gcc-arm-none-eabi-9-2020-q2/arm-none-eabi/include/c++/9.3.1/bits/stl_tree.h ****       while (__x->_M_left != 0) __x = __x->_M_left;
 115:/opt/gcc-arm-none-eabi-9-2020-q2/arm-none-eabi/include/c++/9.3.1/bits/stl_tree.h ****       return __x;
 116:/opt/gcc-arm-none-eabi-9-2020-q2/arm-none-eabi/include/c++/9.3.1/bits/stl_tree.h ****     }
 117:/opt/gcc-arm-none-eabi-9-2020-q2/arm-none-eabi/include/c++/9.3.1/bits/stl_tree.h **** 
 118:/opt/gcc-arm-none-eabi-9-2020-q2/arm-none-eabi/include/c++/9.3.1/bits/stl_tree.h ****     static _Const_Base_ptr
 119:/opt/gcc-arm-none-eabi-9-2020-q2/arm-none-eabi/include/c++/9.3.1/bits/stl_tree.h ****     _S_minimum(_Const_Base_ptr __x) _GLIBCXX_NOEXCEPT
 120:/opt/gcc-arm-none-eabi-9-2020-q2/arm-none-eabi/include/c++/9.3.1/bits/stl_tree.h ****     {
 121:/opt/gcc-arm-none-eabi-9-2020-q2/arm-none-eabi/include/c++/9.3.1/bits/stl_tree.h ****       while (__x->_M_left != 0) __x = __x->_M_left;
 122:/opt/gcc-arm-none-eabi-9-2020-q2/arm-none-eabi/include/c++/9.3.1/bits/stl_tree.h ****       return __x;
 123:/opt/gcc-arm-none-eabi-9-2020-q2/arm-none-eabi/include/c++/9.3.1/bits/stl_tree.h ****     }
 124:/opt/gcc-arm-none-eabi-9-2020-q2/arm-none-eabi/include/c++/9.3.1/bits/stl_tree.h **** 
 125:/opt/gcc-arm-none-eabi-9-2020-q2/arm-none-eabi/include/c++/9.3.1/bits/stl_tree.h ****     static _Base_ptr
 126:/opt/gcc-arm-none-eabi-9-2020-q2/arm-none-eabi/include/c++/9.3.1/bits/stl_tree.h ****     _S_maximum(_Base_ptr __x) _GLIBCXX_NOEXCEPT
 127:/opt/gcc-arm-none-eabi-9-2020-q2/arm-none-eabi/include/c++/9.3.1/bits/stl_tree.h ****     {
 128:/opt/gcc-arm-none-eabi-9-2020-q2/arm-none-eabi/include/c++/9.3.1/bits/stl_tree.h ****       while (__x->_M_right != 0) __x = __x->_M_right;
 129:/opt/gcc-arm-none-eabi-9-2020-q2/arm-none-eabi/include/c++/9.3.1/bits/stl_tree.h ****       return __x;
 130:/opt/gcc-arm-none-eabi-9-2020-q2/arm-none-eabi/include/c++/9.3.1/bits/stl_tree.h ****     }
 131:/opt/gcc-arm-none-eabi-9-2020-q2/arm-none-eabi/include/c++/9.3.1/bits/stl_tree.h **** 
 132:/opt/gcc-arm-none-eabi-9-2020-q2/arm-none-eabi/include/c++/9.3.1/bits/stl_tree.h ****     static _Const_Base_ptr
 133:/opt/gcc-arm-none-eabi-9-2020-q2/arm-none-eabi/include/c++/9.3.1/bits/stl_tree.h ****     _S_maximum(_Const_Base_ptr __x) _GLIBCXX_NOEXCEPT
 134:/opt/gcc-arm-none-eabi-9-2020-q2/arm-none-eabi/include/c++/9.3.1/bits/stl_tree.h ****     {
 135:/opt/gcc-arm-none-eabi-9-2020-q2/arm-none-eabi/include/c++/9.3.1/bits/stl_tree.h ****       while (__x->_M_right != 0) __x = __x->_M_right;
 136:/opt/gcc-arm-none-eabi-9-2020-q2/arm-none-eabi/include/c++/9.3.1/bits/stl_tree.h ****       return __x;
 137:/opt/gcc-arm-none-eabi-9-2020-q2/arm-none-eabi/include/c++/9.3.1/bits/stl_tree.h ****     }
 138:/opt/gcc-arm-none-eabi-9-2020-q2/arm-none-eabi/include/c++/9.3.1/bits/stl_tree.h ****   };
 139:/opt/gcc-arm-none-eabi-9-2020-q2/arm-none-eabi/include/c++/9.3.1/bits/stl_tree.h **** 
 140:/opt/gcc-arm-none-eabi-9-2020-q2/arm-none-eabi/include/c++/9.3.1/bits/stl_tree.h ****   // Helper type offering value initialization guarantee on the compare functor.
 141:/opt/gcc-arm-none-eabi-9-2020-q2/arm-none-eabi/include/c++/9.3.1/bits/stl_tree.h ****   template<typename _Key_compare>
 142:/opt/gcc-arm-none-eabi-9-2020-q2/arm-none-eabi/include/c++/9.3.1/bits/stl_tree.h ****     struct _Rb_tree_key_compare
 143:/opt/gcc-arm-none-eabi-9-2020-q2/arm-none-eabi/include/c++/9.3.1/bits/stl_tree.h ****     {
 144:/opt/gcc-arm-none-eabi-9-2020-q2/arm-none-eabi/include/c++/9.3.1/bits/stl_tree.h ****       _Key_compare		_M_key_compare;
 145:/opt/gcc-arm-none-eabi-9-2020-q2/arm-none-eabi/include/c++/9.3.1/bits/stl_tree.h **** 
 146:/opt/gcc-arm-none-eabi-9-2020-q2/arm-none-eabi/include/c++/9.3.1/bits/stl_tree.h ****       _Rb_tree_key_compare()
ARM GAS  /tmp/ccSnm6QV.s 			page 33


 147:/opt/gcc-arm-none-eabi-9-2020-q2/arm-none-eabi/include/c++/9.3.1/bits/stl_tree.h ****       _GLIBCXX_NOEXCEPT_IF(
 148:/opt/gcc-arm-none-eabi-9-2020-q2/arm-none-eabi/include/c++/9.3.1/bits/stl_tree.h **** 	is_nothrow_default_constructible<_Key_compare>::value)
 149:/opt/gcc-arm-none-eabi-9-2020-q2/arm-none-eabi/include/c++/9.3.1/bits/stl_tree.h ****       : _M_key_compare()
 150:/opt/gcc-arm-none-eabi-9-2020-q2/arm-none-eabi/include/c++/9.3.1/bits/stl_tree.h ****       { }
 151:/opt/gcc-arm-none-eabi-9-2020-q2/arm-none-eabi/include/c++/9.3.1/bits/stl_tree.h **** 
 152:/opt/gcc-arm-none-eabi-9-2020-q2/arm-none-eabi/include/c++/9.3.1/bits/stl_tree.h ****       _Rb_tree_key_compare(const _Key_compare& __comp)
 153:/opt/gcc-arm-none-eabi-9-2020-q2/arm-none-eabi/include/c++/9.3.1/bits/stl_tree.h ****       : _M_key_compare(__comp)
 154:/opt/gcc-arm-none-eabi-9-2020-q2/arm-none-eabi/include/c++/9.3.1/bits/stl_tree.h ****       { }
 155:/opt/gcc-arm-none-eabi-9-2020-q2/arm-none-eabi/include/c++/9.3.1/bits/stl_tree.h **** 
 156:/opt/gcc-arm-none-eabi-9-2020-q2/arm-none-eabi/include/c++/9.3.1/bits/stl_tree.h **** #if __cplusplus >= 201103L
 157:/opt/gcc-arm-none-eabi-9-2020-q2/arm-none-eabi/include/c++/9.3.1/bits/stl_tree.h ****       // Copy constructor added for consistency with C++98 mode.
 158:/opt/gcc-arm-none-eabi-9-2020-q2/arm-none-eabi/include/c++/9.3.1/bits/stl_tree.h ****       _Rb_tree_key_compare(const _Rb_tree_key_compare&) = default;
 159:/opt/gcc-arm-none-eabi-9-2020-q2/arm-none-eabi/include/c++/9.3.1/bits/stl_tree.h **** 
 160:/opt/gcc-arm-none-eabi-9-2020-q2/arm-none-eabi/include/c++/9.3.1/bits/stl_tree.h ****       _Rb_tree_key_compare(_Rb_tree_key_compare&& __x)
 161:/opt/gcc-arm-none-eabi-9-2020-q2/arm-none-eabi/include/c++/9.3.1/bits/stl_tree.h **** 	noexcept(is_nothrow_copy_constructible<_Key_compare>::value)
 162:/opt/gcc-arm-none-eabi-9-2020-q2/arm-none-eabi/include/c++/9.3.1/bits/stl_tree.h ****       : _M_key_compare(__x._M_key_compare)
 163:/opt/gcc-arm-none-eabi-9-2020-q2/arm-none-eabi/include/c++/9.3.1/bits/stl_tree.h ****       { }
 164:/opt/gcc-arm-none-eabi-9-2020-q2/arm-none-eabi/include/c++/9.3.1/bits/stl_tree.h **** #endif
 165:/opt/gcc-arm-none-eabi-9-2020-q2/arm-none-eabi/include/c++/9.3.1/bits/stl_tree.h ****     };
 166:/opt/gcc-arm-none-eabi-9-2020-q2/arm-none-eabi/include/c++/9.3.1/bits/stl_tree.h **** 
 167:/opt/gcc-arm-none-eabi-9-2020-q2/arm-none-eabi/include/c++/9.3.1/bits/stl_tree.h ****   // Helper type to manage default initialization of node count and header.
 168:/opt/gcc-arm-none-eabi-9-2020-q2/arm-none-eabi/include/c++/9.3.1/bits/stl_tree.h ****   struct _Rb_tree_header
 169:/opt/gcc-arm-none-eabi-9-2020-q2/arm-none-eabi/include/c++/9.3.1/bits/stl_tree.h ****   {
 170:/opt/gcc-arm-none-eabi-9-2020-q2/arm-none-eabi/include/c++/9.3.1/bits/stl_tree.h ****     _Rb_tree_node_base	_M_header;
 171:/opt/gcc-arm-none-eabi-9-2020-q2/arm-none-eabi/include/c++/9.3.1/bits/stl_tree.h ****     size_t		_M_node_count; // Keeps track of size of tree.
 172:/opt/gcc-arm-none-eabi-9-2020-q2/arm-none-eabi/include/c++/9.3.1/bits/stl_tree.h **** 
 173:/opt/gcc-arm-none-eabi-9-2020-q2/arm-none-eabi/include/c++/9.3.1/bits/stl_tree.h ****     _Rb_tree_header() _GLIBCXX_NOEXCEPT
 174:/opt/gcc-arm-none-eabi-9-2020-q2/arm-none-eabi/include/c++/9.3.1/bits/stl_tree.h ****     {
 175:/opt/gcc-arm-none-eabi-9-2020-q2/arm-none-eabi/include/c++/9.3.1/bits/stl_tree.h ****       _M_header._M_color = _S_red;
 176:/opt/gcc-arm-none-eabi-9-2020-q2/arm-none-eabi/include/c++/9.3.1/bits/stl_tree.h ****       _M_reset();
 177:/opt/gcc-arm-none-eabi-9-2020-q2/arm-none-eabi/include/c++/9.3.1/bits/stl_tree.h ****     }
 178:/opt/gcc-arm-none-eabi-9-2020-q2/arm-none-eabi/include/c++/9.3.1/bits/stl_tree.h **** 
 179:/opt/gcc-arm-none-eabi-9-2020-q2/arm-none-eabi/include/c++/9.3.1/bits/stl_tree.h **** #if __cplusplus >= 201103L
 180:/opt/gcc-arm-none-eabi-9-2020-q2/arm-none-eabi/include/c++/9.3.1/bits/stl_tree.h ****     _Rb_tree_header(_Rb_tree_header&& __x) noexcept
 181:/opt/gcc-arm-none-eabi-9-2020-q2/arm-none-eabi/include/c++/9.3.1/bits/stl_tree.h ****     {
 182:/opt/gcc-arm-none-eabi-9-2020-q2/arm-none-eabi/include/c++/9.3.1/bits/stl_tree.h ****       if (__x._M_header._M_parent != nullptr)
 183:/opt/gcc-arm-none-eabi-9-2020-q2/arm-none-eabi/include/c++/9.3.1/bits/stl_tree.h **** 	_M_move_data(__x);
 184:/opt/gcc-arm-none-eabi-9-2020-q2/arm-none-eabi/include/c++/9.3.1/bits/stl_tree.h ****       else
 185:/opt/gcc-arm-none-eabi-9-2020-q2/arm-none-eabi/include/c++/9.3.1/bits/stl_tree.h **** 	{
 186:/opt/gcc-arm-none-eabi-9-2020-q2/arm-none-eabi/include/c++/9.3.1/bits/stl_tree.h **** 	  _M_header._M_color = _S_red;
 187:/opt/gcc-arm-none-eabi-9-2020-q2/arm-none-eabi/include/c++/9.3.1/bits/stl_tree.h **** 	  _M_reset();
 188:/opt/gcc-arm-none-eabi-9-2020-q2/arm-none-eabi/include/c++/9.3.1/bits/stl_tree.h **** 	}
 189:/opt/gcc-arm-none-eabi-9-2020-q2/arm-none-eabi/include/c++/9.3.1/bits/stl_tree.h ****     }
 190:/opt/gcc-arm-none-eabi-9-2020-q2/arm-none-eabi/include/c++/9.3.1/bits/stl_tree.h **** #endif
 191:/opt/gcc-arm-none-eabi-9-2020-q2/arm-none-eabi/include/c++/9.3.1/bits/stl_tree.h **** 
 192:/opt/gcc-arm-none-eabi-9-2020-q2/arm-none-eabi/include/c++/9.3.1/bits/stl_tree.h ****     void
 193:/opt/gcc-arm-none-eabi-9-2020-q2/arm-none-eabi/include/c++/9.3.1/bits/stl_tree.h ****     _M_move_data(_Rb_tree_header& __from)
 194:/opt/gcc-arm-none-eabi-9-2020-q2/arm-none-eabi/include/c++/9.3.1/bits/stl_tree.h ****     {
 195:/opt/gcc-arm-none-eabi-9-2020-q2/arm-none-eabi/include/c++/9.3.1/bits/stl_tree.h ****       _M_header._M_color = __from._M_header._M_color;
 196:/opt/gcc-arm-none-eabi-9-2020-q2/arm-none-eabi/include/c++/9.3.1/bits/stl_tree.h ****       _M_header._M_parent = __from._M_header._M_parent;
 197:/opt/gcc-arm-none-eabi-9-2020-q2/arm-none-eabi/include/c++/9.3.1/bits/stl_tree.h ****       _M_header._M_left = __from._M_header._M_left;
 198:/opt/gcc-arm-none-eabi-9-2020-q2/arm-none-eabi/include/c++/9.3.1/bits/stl_tree.h ****       _M_header._M_right = __from._M_header._M_right;
 199:/opt/gcc-arm-none-eabi-9-2020-q2/arm-none-eabi/include/c++/9.3.1/bits/stl_tree.h ****       _M_header._M_parent->_M_parent = &_M_header;
 200:/opt/gcc-arm-none-eabi-9-2020-q2/arm-none-eabi/include/c++/9.3.1/bits/stl_tree.h ****       _M_node_count = __from._M_node_count;
 201:/opt/gcc-arm-none-eabi-9-2020-q2/arm-none-eabi/include/c++/9.3.1/bits/stl_tree.h **** 
 202:/opt/gcc-arm-none-eabi-9-2020-q2/arm-none-eabi/include/c++/9.3.1/bits/stl_tree.h ****       __from._M_reset();
 203:/opt/gcc-arm-none-eabi-9-2020-q2/arm-none-eabi/include/c++/9.3.1/bits/stl_tree.h ****     }
ARM GAS  /tmp/ccSnm6QV.s 			page 34


 204:/opt/gcc-arm-none-eabi-9-2020-q2/arm-none-eabi/include/c++/9.3.1/bits/stl_tree.h **** 
 205:/opt/gcc-arm-none-eabi-9-2020-q2/arm-none-eabi/include/c++/9.3.1/bits/stl_tree.h ****     void
 206:/opt/gcc-arm-none-eabi-9-2020-q2/arm-none-eabi/include/c++/9.3.1/bits/stl_tree.h ****     _M_reset()
 207:/opt/gcc-arm-none-eabi-9-2020-q2/arm-none-eabi/include/c++/9.3.1/bits/stl_tree.h ****     {
 208:/opt/gcc-arm-none-eabi-9-2020-q2/arm-none-eabi/include/c++/9.3.1/bits/stl_tree.h ****       _M_header._M_parent = 0;
 209:/opt/gcc-arm-none-eabi-9-2020-q2/arm-none-eabi/include/c++/9.3.1/bits/stl_tree.h ****       _M_header._M_left = &_M_header;
 210:/opt/gcc-arm-none-eabi-9-2020-q2/arm-none-eabi/include/c++/9.3.1/bits/stl_tree.h ****       _M_header._M_right = &_M_header;
 211:/opt/gcc-arm-none-eabi-9-2020-q2/arm-none-eabi/include/c++/9.3.1/bits/stl_tree.h ****       _M_node_count = 0;
 212:/opt/gcc-arm-none-eabi-9-2020-q2/arm-none-eabi/include/c++/9.3.1/bits/stl_tree.h ****     }
 213:/opt/gcc-arm-none-eabi-9-2020-q2/arm-none-eabi/include/c++/9.3.1/bits/stl_tree.h ****   };
 214:/opt/gcc-arm-none-eabi-9-2020-q2/arm-none-eabi/include/c++/9.3.1/bits/stl_tree.h **** 
 215:/opt/gcc-arm-none-eabi-9-2020-q2/arm-none-eabi/include/c++/9.3.1/bits/stl_tree.h ****   template<typename _Val>
 216:/opt/gcc-arm-none-eabi-9-2020-q2/arm-none-eabi/include/c++/9.3.1/bits/stl_tree.h ****     struct _Rb_tree_node : public _Rb_tree_node_base
 217:/opt/gcc-arm-none-eabi-9-2020-q2/arm-none-eabi/include/c++/9.3.1/bits/stl_tree.h ****     {
 218:/opt/gcc-arm-none-eabi-9-2020-q2/arm-none-eabi/include/c++/9.3.1/bits/stl_tree.h ****       typedef _Rb_tree_node<_Val>* _Link_type;
 219:/opt/gcc-arm-none-eabi-9-2020-q2/arm-none-eabi/include/c++/9.3.1/bits/stl_tree.h **** 
 220:/opt/gcc-arm-none-eabi-9-2020-q2/arm-none-eabi/include/c++/9.3.1/bits/stl_tree.h **** #if __cplusplus < 201103L
 221:/opt/gcc-arm-none-eabi-9-2020-q2/arm-none-eabi/include/c++/9.3.1/bits/stl_tree.h ****       _Val _M_value_field;
 222:/opt/gcc-arm-none-eabi-9-2020-q2/arm-none-eabi/include/c++/9.3.1/bits/stl_tree.h **** 
 223:/opt/gcc-arm-none-eabi-9-2020-q2/arm-none-eabi/include/c++/9.3.1/bits/stl_tree.h ****       _Val*
 224:/opt/gcc-arm-none-eabi-9-2020-q2/arm-none-eabi/include/c++/9.3.1/bits/stl_tree.h ****       _M_valptr()
 225:/opt/gcc-arm-none-eabi-9-2020-q2/arm-none-eabi/include/c++/9.3.1/bits/stl_tree.h ****       { return std::__addressof(_M_value_field); }
 226:/opt/gcc-arm-none-eabi-9-2020-q2/arm-none-eabi/include/c++/9.3.1/bits/stl_tree.h **** 
 227:/opt/gcc-arm-none-eabi-9-2020-q2/arm-none-eabi/include/c++/9.3.1/bits/stl_tree.h ****       const _Val*
 228:/opt/gcc-arm-none-eabi-9-2020-q2/arm-none-eabi/include/c++/9.3.1/bits/stl_tree.h ****       _M_valptr() const
 229:/opt/gcc-arm-none-eabi-9-2020-q2/arm-none-eabi/include/c++/9.3.1/bits/stl_tree.h ****       { return std::__addressof(_M_value_field); }
 230:/opt/gcc-arm-none-eabi-9-2020-q2/arm-none-eabi/include/c++/9.3.1/bits/stl_tree.h **** #else
 231:/opt/gcc-arm-none-eabi-9-2020-q2/arm-none-eabi/include/c++/9.3.1/bits/stl_tree.h ****       __gnu_cxx::__aligned_membuf<_Val> _M_storage;
 232:/opt/gcc-arm-none-eabi-9-2020-q2/arm-none-eabi/include/c++/9.3.1/bits/stl_tree.h **** 
 233:/opt/gcc-arm-none-eabi-9-2020-q2/arm-none-eabi/include/c++/9.3.1/bits/stl_tree.h ****       _Val*
 234:/opt/gcc-arm-none-eabi-9-2020-q2/arm-none-eabi/include/c++/9.3.1/bits/stl_tree.h ****       _M_valptr()
 235:/opt/gcc-arm-none-eabi-9-2020-q2/arm-none-eabi/include/c++/9.3.1/bits/stl_tree.h ****       { return _M_storage._M_ptr(); }
 236:/opt/gcc-arm-none-eabi-9-2020-q2/arm-none-eabi/include/c++/9.3.1/bits/stl_tree.h **** 
 237:/opt/gcc-arm-none-eabi-9-2020-q2/arm-none-eabi/include/c++/9.3.1/bits/stl_tree.h ****       const _Val*
 238:/opt/gcc-arm-none-eabi-9-2020-q2/arm-none-eabi/include/c++/9.3.1/bits/stl_tree.h ****       _M_valptr() const
 239:/opt/gcc-arm-none-eabi-9-2020-q2/arm-none-eabi/include/c++/9.3.1/bits/stl_tree.h ****       { return _M_storage._M_ptr(); }
 240:/opt/gcc-arm-none-eabi-9-2020-q2/arm-none-eabi/include/c++/9.3.1/bits/stl_tree.h **** #endif
 241:/opt/gcc-arm-none-eabi-9-2020-q2/arm-none-eabi/include/c++/9.3.1/bits/stl_tree.h ****     };
 242:/opt/gcc-arm-none-eabi-9-2020-q2/arm-none-eabi/include/c++/9.3.1/bits/stl_tree.h **** 
 243:/opt/gcc-arm-none-eabi-9-2020-q2/arm-none-eabi/include/c++/9.3.1/bits/stl_tree.h ****   _GLIBCXX_PURE _Rb_tree_node_base*
 244:/opt/gcc-arm-none-eabi-9-2020-q2/arm-none-eabi/include/c++/9.3.1/bits/stl_tree.h ****   _Rb_tree_increment(_Rb_tree_node_base* __x) throw ();
 245:/opt/gcc-arm-none-eabi-9-2020-q2/arm-none-eabi/include/c++/9.3.1/bits/stl_tree.h **** 
 246:/opt/gcc-arm-none-eabi-9-2020-q2/arm-none-eabi/include/c++/9.3.1/bits/stl_tree.h ****   _GLIBCXX_PURE const _Rb_tree_node_base*
 247:/opt/gcc-arm-none-eabi-9-2020-q2/arm-none-eabi/include/c++/9.3.1/bits/stl_tree.h ****   _Rb_tree_increment(const _Rb_tree_node_base* __x) throw ();
 248:/opt/gcc-arm-none-eabi-9-2020-q2/arm-none-eabi/include/c++/9.3.1/bits/stl_tree.h **** 
 249:/opt/gcc-arm-none-eabi-9-2020-q2/arm-none-eabi/include/c++/9.3.1/bits/stl_tree.h ****   _GLIBCXX_PURE _Rb_tree_node_base*
 250:/opt/gcc-arm-none-eabi-9-2020-q2/arm-none-eabi/include/c++/9.3.1/bits/stl_tree.h ****   _Rb_tree_decrement(_Rb_tree_node_base* __x) throw ();
 251:/opt/gcc-arm-none-eabi-9-2020-q2/arm-none-eabi/include/c++/9.3.1/bits/stl_tree.h **** 
 252:/opt/gcc-arm-none-eabi-9-2020-q2/arm-none-eabi/include/c++/9.3.1/bits/stl_tree.h ****   _GLIBCXX_PURE const _Rb_tree_node_base*
 253:/opt/gcc-arm-none-eabi-9-2020-q2/arm-none-eabi/include/c++/9.3.1/bits/stl_tree.h ****   _Rb_tree_decrement(const _Rb_tree_node_base* __x) throw ();
 254:/opt/gcc-arm-none-eabi-9-2020-q2/arm-none-eabi/include/c++/9.3.1/bits/stl_tree.h **** 
 255:/opt/gcc-arm-none-eabi-9-2020-q2/arm-none-eabi/include/c++/9.3.1/bits/stl_tree.h ****   template<typename _Tp>
 256:/opt/gcc-arm-none-eabi-9-2020-q2/arm-none-eabi/include/c++/9.3.1/bits/stl_tree.h ****     struct _Rb_tree_iterator
 257:/opt/gcc-arm-none-eabi-9-2020-q2/arm-none-eabi/include/c++/9.3.1/bits/stl_tree.h ****     {
 258:/opt/gcc-arm-none-eabi-9-2020-q2/arm-none-eabi/include/c++/9.3.1/bits/stl_tree.h ****       typedef _Tp  value_type;
 259:/opt/gcc-arm-none-eabi-9-2020-q2/arm-none-eabi/include/c++/9.3.1/bits/stl_tree.h ****       typedef _Tp& reference;
 260:/opt/gcc-arm-none-eabi-9-2020-q2/arm-none-eabi/include/c++/9.3.1/bits/stl_tree.h ****       typedef _Tp* pointer;
ARM GAS  /tmp/ccSnm6QV.s 			page 35


 261:/opt/gcc-arm-none-eabi-9-2020-q2/arm-none-eabi/include/c++/9.3.1/bits/stl_tree.h **** 
 262:/opt/gcc-arm-none-eabi-9-2020-q2/arm-none-eabi/include/c++/9.3.1/bits/stl_tree.h ****       typedef bidirectional_iterator_tag iterator_category;
 263:/opt/gcc-arm-none-eabi-9-2020-q2/arm-none-eabi/include/c++/9.3.1/bits/stl_tree.h ****       typedef ptrdiff_t			 difference_type;
 264:/opt/gcc-arm-none-eabi-9-2020-q2/arm-none-eabi/include/c++/9.3.1/bits/stl_tree.h **** 
 265:/opt/gcc-arm-none-eabi-9-2020-q2/arm-none-eabi/include/c++/9.3.1/bits/stl_tree.h ****       typedef _Rb_tree_iterator<_Tp>		_Self;
 266:/opt/gcc-arm-none-eabi-9-2020-q2/arm-none-eabi/include/c++/9.3.1/bits/stl_tree.h ****       typedef _Rb_tree_node_base::_Base_ptr	_Base_ptr;
 267:/opt/gcc-arm-none-eabi-9-2020-q2/arm-none-eabi/include/c++/9.3.1/bits/stl_tree.h ****       typedef _Rb_tree_node<_Tp>*		_Link_type;
 268:/opt/gcc-arm-none-eabi-9-2020-q2/arm-none-eabi/include/c++/9.3.1/bits/stl_tree.h **** 
 269:/opt/gcc-arm-none-eabi-9-2020-q2/arm-none-eabi/include/c++/9.3.1/bits/stl_tree.h ****       _Rb_tree_iterator() _GLIBCXX_NOEXCEPT
 270:/opt/gcc-arm-none-eabi-9-2020-q2/arm-none-eabi/include/c++/9.3.1/bits/stl_tree.h ****       : _M_node() { }
 271:/opt/gcc-arm-none-eabi-9-2020-q2/arm-none-eabi/include/c++/9.3.1/bits/stl_tree.h **** 
 272:/opt/gcc-arm-none-eabi-9-2020-q2/arm-none-eabi/include/c++/9.3.1/bits/stl_tree.h ****       explicit
 273:/opt/gcc-arm-none-eabi-9-2020-q2/arm-none-eabi/include/c++/9.3.1/bits/stl_tree.h ****       _Rb_tree_iterator(_Base_ptr __x) _GLIBCXX_NOEXCEPT
 274:/opt/gcc-arm-none-eabi-9-2020-q2/arm-none-eabi/include/c++/9.3.1/bits/stl_tree.h ****       : _M_node(__x) { }
 275:/opt/gcc-arm-none-eabi-9-2020-q2/arm-none-eabi/include/c++/9.3.1/bits/stl_tree.h **** 
 276:/opt/gcc-arm-none-eabi-9-2020-q2/arm-none-eabi/include/c++/9.3.1/bits/stl_tree.h ****       reference
 277:/opt/gcc-arm-none-eabi-9-2020-q2/arm-none-eabi/include/c++/9.3.1/bits/stl_tree.h ****       operator*() const _GLIBCXX_NOEXCEPT
 278:/opt/gcc-arm-none-eabi-9-2020-q2/arm-none-eabi/include/c++/9.3.1/bits/stl_tree.h ****       { return *static_cast<_Link_type>(_M_node)->_M_valptr(); }
 279:/opt/gcc-arm-none-eabi-9-2020-q2/arm-none-eabi/include/c++/9.3.1/bits/stl_tree.h **** 
 280:/opt/gcc-arm-none-eabi-9-2020-q2/arm-none-eabi/include/c++/9.3.1/bits/stl_tree.h ****       pointer
 281:/opt/gcc-arm-none-eabi-9-2020-q2/arm-none-eabi/include/c++/9.3.1/bits/stl_tree.h ****       operator->() const _GLIBCXX_NOEXCEPT
 282:/opt/gcc-arm-none-eabi-9-2020-q2/arm-none-eabi/include/c++/9.3.1/bits/stl_tree.h ****       { return static_cast<_Link_type> (_M_node)->_M_valptr(); }
 283:/opt/gcc-arm-none-eabi-9-2020-q2/arm-none-eabi/include/c++/9.3.1/bits/stl_tree.h **** 
 284:/opt/gcc-arm-none-eabi-9-2020-q2/arm-none-eabi/include/c++/9.3.1/bits/stl_tree.h ****       _Self&
 285:/opt/gcc-arm-none-eabi-9-2020-q2/arm-none-eabi/include/c++/9.3.1/bits/stl_tree.h ****       operator++() _GLIBCXX_NOEXCEPT
 286:/opt/gcc-arm-none-eabi-9-2020-q2/arm-none-eabi/include/c++/9.3.1/bits/stl_tree.h ****       {
 287:/opt/gcc-arm-none-eabi-9-2020-q2/arm-none-eabi/include/c++/9.3.1/bits/stl_tree.h **** 	_M_node = _Rb_tree_increment(_M_node);
 288:/opt/gcc-arm-none-eabi-9-2020-q2/arm-none-eabi/include/c++/9.3.1/bits/stl_tree.h **** 	return *this;
 289:/opt/gcc-arm-none-eabi-9-2020-q2/arm-none-eabi/include/c++/9.3.1/bits/stl_tree.h ****       }
 290:/opt/gcc-arm-none-eabi-9-2020-q2/arm-none-eabi/include/c++/9.3.1/bits/stl_tree.h **** 
 291:/opt/gcc-arm-none-eabi-9-2020-q2/arm-none-eabi/include/c++/9.3.1/bits/stl_tree.h ****       _Self
 292:/opt/gcc-arm-none-eabi-9-2020-q2/arm-none-eabi/include/c++/9.3.1/bits/stl_tree.h ****       operator++(int) _GLIBCXX_NOEXCEPT
 293:/opt/gcc-arm-none-eabi-9-2020-q2/arm-none-eabi/include/c++/9.3.1/bits/stl_tree.h ****       {
 294:/opt/gcc-arm-none-eabi-9-2020-q2/arm-none-eabi/include/c++/9.3.1/bits/stl_tree.h **** 	_Self __tmp = *this;
 295:/opt/gcc-arm-none-eabi-9-2020-q2/arm-none-eabi/include/c++/9.3.1/bits/stl_tree.h **** 	_M_node = _Rb_tree_increment(_M_node);
 296:/opt/gcc-arm-none-eabi-9-2020-q2/arm-none-eabi/include/c++/9.3.1/bits/stl_tree.h **** 	return __tmp;
 297:/opt/gcc-arm-none-eabi-9-2020-q2/arm-none-eabi/include/c++/9.3.1/bits/stl_tree.h ****       }
 298:/opt/gcc-arm-none-eabi-9-2020-q2/arm-none-eabi/include/c++/9.3.1/bits/stl_tree.h **** 
 299:/opt/gcc-arm-none-eabi-9-2020-q2/arm-none-eabi/include/c++/9.3.1/bits/stl_tree.h ****       _Self&
 300:/opt/gcc-arm-none-eabi-9-2020-q2/arm-none-eabi/include/c++/9.3.1/bits/stl_tree.h ****       operator--() _GLIBCXX_NOEXCEPT
 301:/opt/gcc-arm-none-eabi-9-2020-q2/arm-none-eabi/include/c++/9.3.1/bits/stl_tree.h ****       {
 302:/opt/gcc-arm-none-eabi-9-2020-q2/arm-none-eabi/include/c++/9.3.1/bits/stl_tree.h **** 	_M_node = _Rb_tree_decrement(_M_node);
 303:/opt/gcc-arm-none-eabi-9-2020-q2/arm-none-eabi/include/c++/9.3.1/bits/stl_tree.h **** 	return *this;
 304:/opt/gcc-arm-none-eabi-9-2020-q2/arm-none-eabi/include/c++/9.3.1/bits/stl_tree.h ****       }
 305:/opt/gcc-arm-none-eabi-9-2020-q2/arm-none-eabi/include/c++/9.3.1/bits/stl_tree.h **** 
 306:/opt/gcc-arm-none-eabi-9-2020-q2/arm-none-eabi/include/c++/9.3.1/bits/stl_tree.h ****       _Self
 307:/opt/gcc-arm-none-eabi-9-2020-q2/arm-none-eabi/include/c++/9.3.1/bits/stl_tree.h ****       operator--(int) _GLIBCXX_NOEXCEPT
 308:/opt/gcc-arm-none-eabi-9-2020-q2/arm-none-eabi/include/c++/9.3.1/bits/stl_tree.h ****       {
 309:/opt/gcc-arm-none-eabi-9-2020-q2/arm-none-eabi/include/c++/9.3.1/bits/stl_tree.h **** 	_Self __tmp = *this;
 310:/opt/gcc-arm-none-eabi-9-2020-q2/arm-none-eabi/include/c++/9.3.1/bits/stl_tree.h **** 	_M_node = _Rb_tree_decrement(_M_node);
 311:/opt/gcc-arm-none-eabi-9-2020-q2/arm-none-eabi/include/c++/9.3.1/bits/stl_tree.h **** 	return __tmp;
 312:/opt/gcc-arm-none-eabi-9-2020-q2/arm-none-eabi/include/c++/9.3.1/bits/stl_tree.h ****       }
 313:/opt/gcc-arm-none-eabi-9-2020-q2/arm-none-eabi/include/c++/9.3.1/bits/stl_tree.h **** 
 314:/opt/gcc-arm-none-eabi-9-2020-q2/arm-none-eabi/include/c++/9.3.1/bits/stl_tree.h ****       friend bool
 315:/opt/gcc-arm-none-eabi-9-2020-q2/arm-none-eabi/include/c++/9.3.1/bits/stl_tree.h ****       operator==(const _Self& __x, const _Self& __y) _GLIBCXX_NOEXCEPT
 316:/opt/gcc-arm-none-eabi-9-2020-q2/arm-none-eabi/include/c++/9.3.1/bits/stl_tree.h ****       { return __x._M_node == __y._M_node; }
 317:/opt/gcc-arm-none-eabi-9-2020-q2/arm-none-eabi/include/c++/9.3.1/bits/stl_tree.h **** 
ARM GAS  /tmp/ccSnm6QV.s 			page 36


 318:/opt/gcc-arm-none-eabi-9-2020-q2/arm-none-eabi/include/c++/9.3.1/bits/stl_tree.h ****       friend bool
 319:/opt/gcc-arm-none-eabi-9-2020-q2/arm-none-eabi/include/c++/9.3.1/bits/stl_tree.h ****       operator!=(const _Self& __x, const _Self& __y) _GLIBCXX_NOEXCEPT
 320:/opt/gcc-arm-none-eabi-9-2020-q2/arm-none-eabi/include/c++/9.3.1/bits/stl_tree.h ****       { return __x._M_node != __y._M_node; }
 321:/opt/gcc-arm-none-eabi-9-2020-q2/arm-none-eabi/include/c++/9.3.1/bits/stl_tree.h **** 
 322:/opt/gcc-arm-none-eabi-9-2020-q2/arm-none-eabi/include/c++/9.3.1/bits/stl_tree.h ****       _Base_ptr _M_node;
 323:/opt/gcc-arm-none-eabi-9-2020-q2/arm-none-eabi/include/c++/9.3.1/bits/stl_tree.h ****   };
 324:/opt/gcc-arm-none-eabi-9-2020-q2/arm-none-eabi/include/c++/9.3.1/bits/stl_tree.h **** 
 325:/opt/gcc-arm-none-eabi-9-2020-q2/arm-none-eabi/include/c++/9.3.1/bits/stl_tree.h ****   template<typename _Tp>
 326:/opt/gcc-arm-none-eabi-9-2020-q2/arm-none-eabi/include/c++/9.3.1/bits/stl_tree.h ****     struct _Rb_tree_const_iterator
 327:/opt/gcc-arm-none-eabi-9-2020-q2/arm-none-eabi/include/c++/9.3.1/bits/stl_tree.h ****     {
 328:/opt/gcc-arm-none-eabi-9-2020-q2/arm-none-eabi/include/c++/9.3.1/bits/stl_tree.h ****       typedef _Tp	 value_type;
 329:/opt/gcc-arm-none-eabi-9-2020-q2/arm-none-eabi/include/c++/9.3.1/bits/stl_tree.h ****       typedef const _Tp& reference;
 330:/opt/gcc-arm-none-eabi-9-2020-q2/arm-none-eabi/include/c++/9.3.1/bits/stl_tree.h ****       typedef const _Tp* pointer;
 331:/opt/gcc-arm-none-eabi-9-2020-q2/arm-none-eabi/include/c++/9.3.1/bits/stl_tree.h **** 
 332:/opt/gcc-arm-none-eabi-9-2020-q2/arm-none-eabi/include/c++/9.3.1/bits/stl_tree.h ****       typedef _Rb_tree_iterator<_Tp> iterator;
 333:/opt/gcc-arm-none-eabi-9-2020-q2/arm-none-eabi/include/c++/9.3.1/bits/stl_tree.h **** 
 334:/opt/gcc-arm-none-eabi-9-2020-q2/arm-none-eabi/include/c++/9.3.1/bits/stl_tree.h ****       typedef bidirectional_iterator_tag iterator_category;
 335:/opt/gcc-arm-none-eabi-9-2020-q2/arm-none-eabi/include/c++/9.3.1/bits/stl_tree.h ****       typedef ptrdiff_t			 difference_type;
 336:/opt/gcc-arm-none-eabi-9-2020-q2/arm-none-eabi/include/c++/9.3.1/bits/stl_tree.h **** 
 337:/opt/gcc-arm-none-eabi-9-2020-q2/arm-none-eabi/include/c++/9.3.1/bits/stl_tree.h ****       typedef _Rb_tree_const_iterator<_Tp>		_Self;
 338:/opt/gcc-arm-none-eabi-9-2020-q2/arm-none-eabi/include/c++/9.3.1/bits/stl_tree.h ****       typedef _Rb_tree_node_base::_Const_Base_ptr	_Base_ptr;
 339:/opt/gcc-arm-none-eabi-9-2020-q2/arm-none-eabi/include/c++/9.3.1/bits/stl_tree.h ****       typedef const _Rb_tree_node<_Tp>*			_Link_type;
 340:/opt/gcc-arm-none-eabi-9-2020-q2/arm-none-eabi/include/c++/9.3.1/bits/stl_tree.h **** 
 341:/opt/gcc-arm-none-eabi-9-2020-q2/arm-none-eabi/include/c++/9.3.1/bits/stl_tree.h ****       _Rb_tree_const_iterator() _GLIBCXX_NOEXCEPT
 342:/opt/gcc-arm-none-eabi-9-2020-q2/arm-none-eabi/include/c++/9.3.1/bits/stl_tree.h ****       : _M_node() { }
 343:/opt/gcc-arm-none-eabi-9-2020-q2/arm-none-eabi/include/c++/9.3.1/bits/stl_tree.h **** 
 344:/opt/gcc-arm-none-eabi-9-2020-q2/arm-none-eabi/include/c++/9.3.1/bits/stl_tree.h ****       explicit
 345:/opt/gcc-arm-none-eabi-9-2020-q2/arm-none-eabi/include/c++/9.3.1/bits/stl_tree.h ****       _Rb_tree_const_iterator(_Base_ptr __x) _GLIBCXX_NOEXCEPT
 346:/opt/gcc-arm-none-eabi-9-2020-q2/arm-none-eabi/include/c++/9.3.1/bits/stl_tree.h ****       : _M_node(__x) { }
 347:/opt/gcc-arm-none-eabi-9-2020-q2/arm-none-eabi/include/c++/9.3.1/bits/stl_tree.h **** 
 348:/opt/gcc-arm-none-eabi-9-2020-q2/arm-none-eabi/include/c++/9.3.1/bits/stl_tree.h ****       _Rb_tree_const_iterator(const iterator& __it) _GLIBCXX_NOEXCEPT
 349:/opt/gcc-arm-none-eabi-9-2020-q2/arm-none-eabi/include/c++/9.3.1/bits/stl_tree.h ****       : _M_node(__it._M_node) { }
 350:/opt/gcc-arm-none-eabi-9-2020-q2/arm-none-eabi/include/c++/9.3.1/bits/stl_tree.h **** 
 351:/opt/gcc-arm-none-eabi-9-2020-q2/arm-none-eabi/include/c++/9.3.1/bits/stl_tree.h ****       iterator
 352:/opt/gcc-arm-none-eabi-9-2020-q2/arm-none-eabi/include/c++/9.3.1/bits/stl_tree.h ****       _M_const_cast() const _GLIBCXX_NOEXCEPT
 353:/opt/gcc-arm-none-eabi-9-2020-q2/arm-none-eabi/include/c++/9.3.1/bits/stl_tree.h ****       { return iterator(const_cast<typename iterator::_Base_ptr>(_M_node)); }
 354:/opt/gcc-arm-none-eabi-9-2020-q2/arm-none-eabi/include/c++/9.3.1/bits/stl_tree.h **** 
 355:/opt/gcc-arm-none-eabi-9-2020-q2/arm-none-eabi/include/c++/9.3.1/bits/stl_tree.h ****       reference
 356:/opt/gcc-arm-none-eabi-9-2020-q2/arm-none-eabi/include/c++/9.3.1/bits/stl_tree.h ****       operator*() const _GLIBCXX_NOEXCEPT
 357:/opt/gcc-arm-none-eabi-9-2020-q2/arm-none-eabi/include/c++/9.3.1/bits/stl_tree.h ****       { return *static_cast<_Link_type>(_M_node)->_M_valptr(); }
 358:/opt/gcc-arm-none-eabi-9-2020-q2/arm-none-eabi/include/c++/9.3.1/bits/stl_tree.h **** 
 359:/opt/gcc-arm-none-eabi-9-2020-q2/arm-none-eabi/include/c++/9.3.1/bits/stl_tree.h ****       pointer
 360:/opt/gcc-arm-none-eabi-9-2020-q2/arm-none-eabi/include/c++/9.3.1/bits/stl_tree.h ****       operator->() const _GLIBCXX_NOEXCEPT
 361:/opt/gcc-arm-none-eabi-9-2020-q2/arm-none-eabi/include/c++/9.3.1/bits/stl_tree.h ****       { return static_cast<_Link_type>(_M_node)->_M_valptr(); }
 362:/opt/gcc-arm-none-eabi-9-2020-q2/arm-none-eabi/include/c++/9.3.1/bits/stl_tree.h **** 
 363:/opt/gcc-arm-none-eabi-9-2020-q2/arm-none-eabi/include/c++/9.3.1/bits/stl_tree.h ****       _Self&
 364:/opt/gcc-arm-none-eabi-9-2020-q2/arm-none-eabi/include/c++/9.3.1/bits/stl_tree.h ****       operator++() _GLIBCXX_NOEXCEPT
 365:/opt/gcc-arm-none-eabi-9-2020-q2/arm-none-eabi/include/c++/9.3.1/bits/stl_tree.h ****       {
 366:/opt/gcc-arm-none-eabi-9-2020-q2/arm-none-eabi/include/c++/9.3.1/bits/stl_tree.h **** 	_M_node = _Rb_tree_increment(_M_node);
 367:/opt/gcc-arm-none-eabi-9-2020-q2/arm-none-eabi/include/c++/9.3.1/bits/stl_tree.h **** 	return *this;
 368:/opt/gcc-arm-none-eabi-9-2020-q2/arm-none-eabi/include/c++/9.3.1/bits/stl_tree.h ****       }
 369:/opt/gcc-arm-none-eabi-9-2020-q2/arm-none-eabi/include/c++/9.3.1/bits/stl_tree.h **** 
 370:/opt/gcc-arm-none-eabi-9-2020-q2/arm-none-eabi/include/c++/9.3.1/bits/stl_tree.h ****       _Self
 371:/opt/gcc-arm-none-eabi-9-2020-q2/arm-none-eabi/include/c++/9.3.1/bits/stl_tree.h ****       operator++(int) _GLIBCXX_NOEXCEPT
 372:/opt/gcc-arm-none-eabi-9-2020-q2/arm-none-eabi/include/c++/9.3.1/bits/stl_tree.h ****       {
 373:/opt/gcc-arm-none-eabi-9-2020-q2/arm-none-eabi/include/c++/9.3.1/bits/stl_tree.h **** 	_Self __tmp = *this;
 374:/opt/gcc-arm-none-eabi-9-2020-q2/arm-none-eabi/include/c++/9.3.1/bits/stl_tree.h **** 	_M_node = _Rb_tree_increment(_M_node);
ARM GAS  /tmp/ccSnm6QV.s 			page 37


 375:/opt/gcc-arm-none-eabi-9-2020-q2/arm-none-eabi/include/c++/9.3.1/bits/stl_tree.h **** 	return __tmp;
 376:/opt/gcc-arm-none-eabi-9-2020-q2/arm-none-eabi/include/c++/9.3.1/bits/stl_tree.h ****       }
 377:/opt/gcc-arm-none-eabi-9-2020-q2/arm-none-eabi/include/c++/9.3.1/bits/stl_tree.h **** 
 378:/opt/gcc-arm-none-eabi-9-2020-q2/arm-none-eabi/include/c++/9.3.1/bits/stl_tree.h ****       _Self&
 379:/opt/gcc-arm-none-eabi-9-2020-q2/arm-none-eabi/include/c++/9.3.1/bits/stl_tree.h ****       operator--() _GLIBCXX_NOEXCEPT
 380:/opt/gcc-arm-none-eabi-9-2020-q2/arm-none-eabi/include/c++/9.3.1/bits/stl_tree.h ****       {
 381:/opt/gcc-arm-none-eabi-9-2020-q2/arm-none-eabi/include/c++/9.3.1/bits/stl_tree.h **** 	_M_node = _Rb_tree_decrement(_M_node);
 382:/opt/gcc-arm-none-eabi-9-2020-q2/arm-none-eabi/include/c++/9.3.1/bits/stl_tree.h **** 	return *this;
 383:/opt/gcc-arm-none-eabi-9-2020-q2/arm-none-eabi/include/c++/9.3.1/bits/stl_tree.h ****       }
 384:/opt/gcc-arm-none-eabi-9-2020-q2/arm-none-eabi/include/c++/9.3.1/bits/stl_tree.h **** 
 385:/opt/gcc-arm-none-eabi-9-2020-q2/arm-none-eabi/include/c++/9.3.1/bits/stl_tree.h ****       _Self
 386:/opt/gcc-arm-none-eabi-9-2020-q2/arm-none-eabi/include/c++/9.3.1/bits/stl_tree.h ****       operator--(int) _GLIBCXX_NOEXCEPT
 387:/opt/gcc-arm-none-eabi-9-2020-q2/arm-none-eabi/include/c++/9.3.1/bits/stl_tree.h ****       {
 388:/opt/gcc-arm-none-eabi-9-2020-q2/arm-none-eabi/include/c++/9.3.1/bits/stl_tree.h **** 	_Self __tmp = *this;
 389:/opt/gcc-arm-none-eabi-9-2020-q2/arm-none-eabi/include/c++/9.3.1/bits/stl_tree.h **** 	_M_node = _Rb_tree_decrement(_M_node);
 390:/opt/gcc-arm-none-eabi-9-2020-q2/arm-none-eabi/include/c++/9.3.1/bits/stl_tree.h **** 	return __tmp;
 391:/opt/gcc-arm-none-eabi-9-2020-q2/arm-none-eabi/include/c++/9.3.1/bits/stl_tree.h ****       }
 392:/opt/gcc-arm-none-eabi-9-2020-q2/arm-none-eabi/include/c++/9.3.1/bits/stl_tree.h **** 
 393:/opt/gcc-arm-none-eabi-9-2020-q2/arm-none-eabi/include/c++/9.3.1/bits/stl_tree.h ****       friend bool
 394:/opt/gcc-arm-none-eabi-9-2020-q2/arm-none-eabi/include/c++/9.3.1/bits/stl_tree.h ****       operator==(const _Self& __x, const _Self& __y) _GLIBCXX_NOEXCEPT
 395:/opt/gcc-arm-none-eabi-9-2020-q2/arm-none-eabi/include/c++/9.3.1/bits/stl_tree.h ****       { return __x._M_node == __y._M_node; }
 396:/opt/gcc-arm-none-eabi-9-2020-q2/arm-none-eabi/include/c++/9.3.1/bits/stl_tree.h **** 
 397:/opt/gcc-arm-none-eabi-9-2020-q2/arm-none-eabi/include/c++/9.3.1/bits/stl_tree.h ****       friend bool
 398:/opt/gcc-arm-none-eabi-9-2020-q2/arm-none-eabi/include/c++/9.3.1/bits/stl_tree.h ****       operator!=(const _Self& __x, const _Self& __y) _GLIBCXX_NOEXCEPT
 399:/opt/gcc-arm-none-eabi-9-2020-q2/arm-none-eabi/include/c++/9.3.1/bits/stl_tree.h ****       { return __x._M_node != __y._M_node; }
 400:/opt/gcc-arm-none-eabi-9-2020-q2/arm-none-eabi/include/c++/9.3.1/bits/stl_tree.h **** 
 401:/opt/gcc-arm-none-eabi-9-2020-q2/arm-none-eabi/include/c++/9.3.1/bits/stl_tree.h ****       _Base_ptr _M_node;
 402:/opt/gcc-arm-none-eabi-9-2020-q2/arm-none-eabi/include/c++/9.3.1/bits/stl_tree.h ****     };
 403:/opt/gcc-arm-none-eabi-9-2020-q2/arm-none-eabi/include/c++/9.3.1/bits/stl_tree.h **** 
 404:/opt/gcc-arm-none-eabi-9-2020-q2/arm-none-eabi/include/c++/9.3.1/bits/stl_tree.h ****   void
 405:/opt/gcc-arm-none-eabi-9-2020-q2/arm-none-eabi/include/c++/9.3.1/bits/stl_tree.h ****   _Rb_tree_insert_and_rebalance(const bool __insert_left,
 406:/opt/gcc-arm-none-eabi-9-2020-q2/arm-none-eabi/include/c++/9.3.1/bits/stl_tree.h **** 				_Rb_tree_node_base* __x,
 407:/opt/gcc-arm-none-eabi-9-2020-q2/arm-none-eabi/include/c++/9.3.1/bits/stl_tree.h **** 				_Rb_tree_node_base* __p,
 408:/opt/gcc-arm-none-eabi-9-2020-q2/arm-none-eabi/include/c++/9.3.1/bits/stl_tree.h **** 				_Rb_tree_node_base& __header) throw ();
 409:/opt/gcc-arm-none-eabi-9-2020-q2/arm-none-eabi/include/c++/9.3.1/bits/stl_tree.h **** 
 410:/opt/gcc-arm-none-eabi-9-2020-q2/arm-none-eabi/include/c++/9.3.1/bits/stl_tree.h ****   _Rb_tree_node_base*
 411:/opt/gcc-arm-none-eabi-9-2020-q2/arm-none-eabi/include/c++/9.3.1/bits/stl_tree.h ****   _Rb_tree_rebalance_for_erase(_Rb_tree_node_base* const __z,
 412:/opt/gcc-arm-none-eabi-9-2020-q2/arm-none-eabi/include/c++/9.3.1/bits/stl_tree.h **** 			       _Rb_tree_node_base& __header) throw ();
 413:/opt/gcc-arm-none-eabi-9-2020-q2/arm-none-eabi/include/c++/9.3.1/bits/stl_tree.h **** 
 414:/opt/gcc-arm-none-eabi-9-2020-q2/arm-none-eabi/include/c++/9.3.1/bits/stl_tree.h **** #if __cplusplus >= 201402L
 415:/opt/gcc-arm-none-eabi-9-2020-q2/arm-none-eabi/include/c++/9.3.1/bits/stl_tree.h ****   template<typename _Cmp, typename _SfinaeType, typename = __void_t<>>
 416:/opt/gcc-arm-none-eabi-9-2020-q2/arm-none-eabi/include/c++/9.3.1/bits/stl_tree.h ****     struct __has_is_transparent
 417:/opt/gcc-arm-none-eabi-9-2020-q2/arm-none-eabi/include/c++/9.3.1/bits/stl_tree.h ****     { };
 418:/opt/gcc-arm-none-eabi-9-2020-q2/arm-none-eabi/include/c++/9.3.1/bits/stl_tree.h **** 
 419:/opt/gcc-arm-none-eabi-9-2020-q2/arm-none-eabi/include/c++/9.3.1/bits/stl_tree.h ****   template<typename _Cmp, typename _SfinaeType>
 420:/opt/gcc-arm-none-eabi-9-2020-q2/arm-none-eabi/include/c++/9.3.1/bits/stl_tree.h ****     struct __has_is_transparent<_Cmp, _SfinaeType,
 421:/opt/gcc-arm-none-eabi-9-2020-q2/arm-none-eabi/include/c++/9.3.1/bits/stl_tree.h **** 				__void_t<typename _Cmp::is_transparent>>
 422:/opt/gcc-arm-none-eabi-9-2020-q2/arm-none-eabi/include/c++/9.3.1/bits/stl_tree.h ****     { typedef void type; };
 423:/opt/gcc-arm-none-eabi-9-2020-q2/arm-none-eabi/include/c++/9.3.1/bits/stl_tree.h **** 
 424:/opt/gcc-arm-none-eabi-9-2020-q2/arm-none-eabi/include/c++/9.3.1/bits/stl_tree.h ****   template<typename _Cmp, typename _SfinaeType>
 425:/opt/gcc-arm-none-eabi-9-2020-q2/arm-none-eabi/include/c++/9.3.1/bits/stl_tree.h ****     using __has_is_transparent_t
 426:/opt/gcc-arm-none-eabi-9-2020-q2/arm-none-eabi/include/c++/9.3.1/bits/stl_tree.h ****       = typename __has_is_transparent<_Cmp, _SfinaeType>::type;
 427:/opt/gcc-arm-none-eabi-9-2020-q2/arm-none-eabi/include/c++/9.3.1/bits/stl_tree.h **** #endif
 428:/opt/gcc-arm-none-eabi-9-2020-q2/arm-none-eabi/include/c++/9.3.1/bits/stl_tree.h **** 
 429:/opt/gcc-arm-none-eabi-9-2020-q2/arm-none-eabi/include/c++/9.3.1/bits/stl_tree.h **** #if __cplusplus > 201402L
 430:/opt/gcc-arm-none-eabi-9-2020-q2/arm-none-eabi/include/c++/9.3.1/bits/stl_tree.h ****   template<typename _Tree1, typename _Cmp2>
 431:/opt/gcc-arm-none-eabi-9-2020-q2/arm-none-eabi/include/c++/9.3.1/bits/stl_tree.h ****     struct _Rb_tree_merge_helper { };
ARM GAS  /tmp/ccSnm6QV.s 			page 38


 432:/opt/gcc-arm-none-eabi-9-2020-q2/arm-none-eabi/include/c++/9.3.1/bits/stl_tree.h **** #endif
 433:/opt/gcc-arm-none-eabi-9-2020-q2/arm-none-eabi/include/c++/9.3.1/bits/stl_tree.h **** 
 434:/opt/gcc-arm-none-eabi-9-2020-q2/arm-none-eabi/include/c++/9.3.1/bits/stl_tree.h ****   template<typename _Key, typename _Val, typename _KeyOfValue,
 435:/opt/gcc-arm-none-eabi-9-2020-q2/arm-none-eabi/include/c++/9.3.1/bits/stl_tree.h **** 	   typename _Compare, typename _Alloc = allocator<_Val> >
 436:/opt/gcc-arm-none-eabi-9-2020-q2/arm-none-eabi/include/c++/9.3.1/bits/stl_tree.h ****     class _Rb_tree
 437:/opt/gcc-arm-none-eabi-9-2020-q2/arm-none-eabi/include/c++/9.3.1/bits/stl_tree.h ****     {
 438:/opt/gcc-arm-none-eabi-9-2020-q2/arm-none-eabi/include/c++/9.3.1/bits/stl_tree.h ****       typedef typename __gnu_cxx::__alloc_traits<_Alloc>::template
 439:/opt/gcc-arm-none-eabi-9-2020-q2/arm-none-eabi/include/c++/9.3.1/bits/stl_tree.h **** 	rebind<_Rb_tree_node<_Val> >::other _Node_allocator;
 440:/opt/gcc-arm-none-eabi-9-2020-q2/arm-none-eabi/include/c++/9.3.1/bits/stl_tree.h **** 
 441:/opt/gcc-arm-none-eabi-9-2020-q2/arm-none-eabi/include/c++/9.3.1/bits/stl_tree.h ****       typedef __gnu_cxx::__alloc_traits<_Node_allocator> _Alloc_traits;
 442:/opt/gcc-arm-none-eabi-9-2020-q2/arm-none-eabi/include/c++/9.3.1/bits/stl_tree.h **** 
 443:/opt/gcc-arm-none-eabi-9-2020-q2/arm-none-eabi/include/c++/9.3.1/bits/stl_tree.h ****     protected:
 444:/opt/gcc-arm-none-eabi-9-2020-q2/arm-none-eabi/include/c++/9.3.1/bits/stl_tree.h ****       typedef _Rb_tree_node_base* 		_Base_ptr;
 445:/opt/gcc-arm-none-eabi-9-2020-q2/arm-none-eabi/include/c++/9.3.1/bits/stl_tree.h ****       typedef const _Rb_tree_node_base* 	_Const_Base_ptr;
 446:/opt/gcc-arm-none-eabi-9-2020-q2/arm-none-eabi/include/c++/9.3.1/bits/stl_tree.h ****       typedef _Rb_tree_node<_Val>* 		_Link_type;
 447:/opt/gcc-arm-none-eabi-9-2020-q2/arm-none-eabi/include/c++/9.3.1/bits/stl_tree.h ****       typedef const _Rb_tree_node<_Val>*	_Const_Link_type;
 448:/opt/gcc-arm-none-eabi-9-2020-q2/arm-none-eabi/include/c++/9.3.1/bits/stl_tree.h **** 
 449:/opt/gcc-arm-none-eabi-9-2020-q2/arm-none-eabi/include/c++/9.3.1/bits/stl_tree.h ****     private:
 450:/opt/gcc-arm-none-eabi-9-2020-q2/arm-none-eabi/include/c++/9.3.1/bits/stl_tree.h ****       // Functor recycling a pool of nodes and using allocation once the pool
 451:/opt/gcc-arm-none-eabi-9-2020-q2/arm-none-eabi/include/c++/9.3.1/bits/stl_tree.h ****       // is empty.
 452:/opt/gcc-arm-none-eabi-9-2020-q2/arm-none-eabi/include/c++/9.3.1/bits/stl_tree.h ****       struct _Reuse_or_alloc_node
 453:/opt/gcc-arm-none-eabi-9-2020-q2/arm-none-eabi/include/c++/9.3.1/bits/stl_tree.h ****       {
 454:/opt/gcc-arm-none-eabi-9-2020-q2/arm-none-eabi/include/c++/9.3.1/bits/stl_tree.h **** 	_Reuse_or_alloc_node(_Rb_tree& __t)
 455:/opt/gcc-arm-none-eabi-9-2020-q2/arm-none-eabi/include/c++/9.3.1/bits/stl_tree.h **** 	: _M_root(__t._M_root()), _M_nodes(__t._M_rightmost()), _M_t(__t)
 456:/opt/gcc-arm-none-eabi-9-2020-q2/arm-none-eabi/include/c++/9.3.1/bits/stl_tree.h **** 	{
 457:/opt/gcc-arm-none-eabi-9-2020-q2/arm-none-eabi/include/c++/9.3.1/bits/stl_tree.h **** 	  if (_M_root)
 458:/opt/gcc-arm-none-eabi-9-2020-q2/arm-none-eabi/include/c++/9.3.1/bits/stl_tree.h **** 	    {
 459:/opt/gcc-arm-none-eabi-9-2020-q2/arm-none-eabi/include/c++/9.3.1/bits/stl_tree.h **** 	      _M_root->_M_parent = 0;
 460:/opt/gcc-arm-none-eabi-9-2020-q2/arm-none-eabi/include/c++/9.3.1/bits/stl_tree.h **** 
 461:/opt/gcc-arm-none-eabi-9-2020-q2/arm-none-eabi/include/c++/9.3.1/bits/stl_tree.h **** 	      if (_M_nodes->_M_left)
 462:/opt/gcc-arm-none-eabi-9-2020-q2/arm-none-eabi/include/c++/9.3.1/bits/stl_tree.h **** 		_M_nodes = _M_nodes->_M_left;
 463:/opt/gcc-arm-none-eabi-9-2020-q2/arm-none-eabi/include/c++/9.3.1/bits/stl_tree.h **** 	    }
 464:/opt/gcc-arm-none-eabi-9-2020-q2/arm-none-eabi/include/c++/9.3.1/bits/stl_tree.h **** 	  else
 465:/opt/gcc-arm-none-eabi-9-2020-q2/arm-none-eabi/include/c++/9.3.1/bits/stl_tree.h **** 	    _M_nodes = 0;
 466:/opt/gcc-arm-none-eabi-9-2020-q2/arm-none-eabi/include/c++/9.3.1/bits/stl_tree.h **** 	}
 467:/opt/gcc-arm-none-eabi-9-2020-q2/arm-none-eabi/include/c++/9.3.1/bits/stl_tree.h **** 
 468:/opt/gcc-arm-none-eabi-9-2020-q2/arm-none-eabi/include/c++/9.3.1/bits/stl_tree.h **** #if __cplusplus >= 201103L
 469:/opt/gcc-arm-none-eabi-9-2020-q2/arm-none-eabi/include/c++/9.3.1/bits/stl_tree.h **** 	_Reuse_or_alloc_node(const _Reuse_or_alloc_node&) = delete;
 470:/opt/gcc-arm-none-eabi-9-2020-q2/arm-none-eabi/include/c++/9.3.1/bits/stl_tree.h **** #endif
 471:/opt/gcc-arm-none-eabi-9-2020-q2/arm-none-eabi/include/c++/9.3.1/bits/stl_tree.h **** 
 472:/opt/gcc-arm-none-eabi-9-2020-q2/arm-none-eabi/include/c++/9.3.1/bits/stl_tree.h **** 	~_Reuse_or_alloc_node()
 473:/opt/gcc-arm-none-eabi-9-2020-q2/arm-none-eabi/include/c++/9.3.1/bits/stl_tree.h **** 	{ _M_t._M_erase(static_cast<_Link_type>(_M_root)); }
 474:/opt/gcc-arm-none-eabi-9-2020-q2/arm-none-eabi/include/c++/9.3.1/bits/stl_tree.h **** 
 475:/opt/gcc-arm-none-eabi-9-2020-q2/arm-none-eabi/include/c++/9.3.1/bits/stl_tree.h **** 	template<typename _Arg>
 476:/opt/gcc-arm-none-eabi-9-2020-q2/arm-none-eabi/include/c++/9.3.1/bits/stl_tree.h **** 	  _Link_type
 477:/opt/gcc-arm-none-eabi-9-2020-q2/arm-none-eabi/include/c++/9.3.1/bits/stl_tree.h **** #if __cplusplus < 201103L
 478:/opt/gcc-arm-none-eabi-9-2020-q2/arm-none-eabi/include/c++/9.3.1/bits/stl_tree.h **** 	  operator()(const _Arg& __arg)
 479:/opt/gcc-arm-none-eabi-9-2020-q2/arm-none-eabi/include/c++/9.3.1/bits/stl_tree.h **** #else
 480:/opt/gcc-arm-none-eabi-9-2020-q2/arm-none-eabi/include/c++/9.3.1/bits/stl_tree.h **** 	  operator()(_Arg&& __arg)
 481:/opt/gcc-arm-none-eabi-9-2020-q2/arm-none-eabi/include/c++/9.3.1/bits/stl_tree.h **** #endif
 482:/opt/gcc-arm-none-eabi-9-2020-q2/arm-none-eabi/include/c++/9.3.1/bits/stl_tree.h **** 	  {
 483:/opt/gcc-arm-none-eabi-9-2020-q2/arm-none-eabi/include/c++/9.3.1/bits/stl_tree.h **** 	    _Link_type __node = static_cast<_Link_type>(_M_extract());
 484:/opt/gcc-arm-none-eabi-9-2020-q2/arm-none-eabi/include/c++/9.3.1/bits/stl_tree.h **** 	    if (__node)
 485:/opt/gcc-arm-none-eabi-9-2020-q2/arm-none-eabi/include/c++/9.3.1/bits/stl_tree.h **** 	      {
 486:/opt/gcc-arm-none-eabi-9-2020-q2/arm-none-eabi/include/c++/9.3.1/bits/stl_tree.h **** 		_M_t._M_destroy_node(__node);
 487:/opt/gcc-arm-none-eabi-9-2020-q2/arm-none-eabi/include/c++/9.3.1/bits/stl_tree.h **** 		_M_t._M_construct_node(__node, _GLIBCXX_FORWARD(_Arg, __arg));
 488:/opt/gcc-arm-none-eabi-9-2020-q2/arm-none-eabi/include/c++/9.3.1/bits/stl_tree.h **** 		return __node;
ARM GAS  /tmp/ccSnm6QV.s 			page 39


 489:/opt/gcc-arm-none-eabi-9-2020-q2/arm-none-eabi/include/c++/9.3.1/bits/stl_tree.h **** 	      }
 490:/opt/gcc-arm-none-eabi-9-2020-q2/arm-none-eabi/include/c++/9.3.1/bits/stl_tree.h **** 
 491:/opt/gcc-arm-none-eabi-9-2020-q2/arm-none-eabi/include/c++/9.3.1/bits/stl_tree.h **** 	    return _M_t._M_create_node(_GLIBCXX_FORWARD(_Arg, __arg));
 492:/opt/gcc-arm-none-eabi-9-2020-q2/arm-none-eabi/include/c++/9.3.1/bits/stl_tree.h **** 	  }
 493:/opt/gcc-arm-none-eabi-9-2020-q2/arm-none-eabi/include/c++/9.3.1/bits/stl_tree.h **** 
 494:/opt/gcc-arm-none-eabi-9-2020-q2/arm-none-eabi/include/c++/9.3.1/bits/stl_tree.h ****       private:
 495:/opt/gcc-arm-none-eabi-9-2020-q2/arm-none-eabi/include/c++/9.3.1/bits/stl_tree.h **** 	_Base_ptr
 496:/opt/gcc-arm-none-eabi-9-2020-q2/arm-none-eabi/include/c++/9.3.1/bits/stl_tree.h **** 	_M_extract()
 497:/opt/gcc-arm-none-eabi-9-2020-q2/arm-none-eabi/include/c++/9.3.1/bits/stl_tree.h **** 	{
 498:/opt/gcc-arm-none-eabi-9-2020-q2/arm-none-eabi/include/c++/9.3.1/bits/stl_tree.h **** 	  if (!_M_nodes)
 499:/opt/gcc-arm-none-eabi-9-2020-q2/arm-none-eabi/include/c++/9.3.1/bits/stl_tree.h **** 	    return _M_nodes;
 500:/opt/gcc-arm-none-eabi-9-2020-q2/arm-none-eabi/include/c++/9.3.1/bits/stl_tree.h **** 
 501:/opt/gcc-arm-none-eabi-9-2020-q2/arm-none-eabi/include/c++/9.3.1/bits/stl_tree.h **** 	  _Base_ptr __node = _M_nodes;
 502:/opt/gcc-arm-none-eabi-9-2020-q2/arm-none-eabi/include/c++/9.3.1/bits/stl_tree.h **** 	  _M_nodes = _M_nodes->_M_parent;
 503:/opt/gcc-arm-none-eabi-9-2020-q2/arm-none-eabi/include/c++/9.3.1/bits/stl_tree.h **** 	  if (_M_nodes)
 504:/opt/gcc-arm-none-eabi-9-2020-q2/arm-none-eabi/include/c++/9.3.1/bits/stl_tree.h **** 	    {
 505:/opt/gcc-arm-none-eabi-9-2020-q2/arm-none-eabi/include/c++/9.3.1/bits/stl_tree.h **** 	      if (_M_nodes->_M_right == __node)
 506:/opt/gcc-arm-none-eabi-9-2020-q2/arm-none-eabi/include/c++/9.3.1/bits/stl_tree.h **** 		{
 507:/opt/gcc-arm-none-eabi-9-2020-q2/arm-none-eabi/include/c++/9.3.1/bits/stl_tree.h **** 		  _M_nodes->_M_right = 0;
 508:/opt/gcc-arm-none-eabi-9-2020-q2/arm-none-eabi/include/c++/9.3.1/bits/stl_tree.h **** 
 509:/opt/gcc-arm-none-eabi-9-2020-q2/arm-none-eabi/include/c++/9.3.1/bits/stl_tree.h **** 		  if (_M_nodes->_M_left)
 510:/opt/gcc-arm-none-eabi-9-2020-q2/arm-none-eabi/include/c++/9.3.1/bits/stl_tree.h **** 		    {
 511:/opt/gcc-arm-none-eabi-9-2020-q2/arm-none-eabi/include/c++/9.3.1/bits/stl_tree.h **** 		      _M_nodes = _M_nodes->_M_left;
 512:/opt/gcc-arm-none-eabi-9-2020-q2/arm-none-eabi/include/c++/9.3.1/bits/stl_tree.h **** 
 513:/opt/gcc-arm-none-eabi-9-2020-q2/arm-none-eabi/include/c++/9.3.1/bits/stl_tree.h **** 		      while (_M_nodes->_M_right)
 514:/opt/gcc-arm-none-eabi-9-2020-q2/arm-none-eabi/include/c++/9.3.1/bits/stl_tree.h **** 			_M_nodes = _M_nodes->_M_right;
 515:/opt/gcc-arm-none-eabi-9-2020-q2/arm-none-eabi/include/c++/9.3.1/bits/stl_tree.h **** 
 516:/opt/gcc-arm-none-eabi-9-2020-q2/arm-none-eabi/include/c++/9.3.1/bits/stl_tree.h **** 		      if (_M_nodes->_M_left)
 517:/opt/gcc-arm-none-eabi-9-2020-q2/arm-none-eabi/include/c++/9.3.1/bits/stl_tree.h **** 			_M_nodes = _M_nodes->_M_left;
 518:/opt/gcc-arm-none-eabi-9-2020-q2/arm-none-eabi/include/c++/9.3.1/bits/stl_tree.h **** 		    }
 519:/opt/gcc-arm-none-eabi-9-2020-q2/arm-none-eabi/include/c++/9.3.1/bits/stl_tree.h **** 		}
 520:/opt/gcc-arm-none-eabi-9-2020-q2/arm-none-eabi/include/c++/9.3.1/bits/stl_tree.h **** 	      else // __node is on the left.
 521:/opt/gcc-arm-none-eabi-9-2020-q2/arm-none-eabi/include/c++/9.3.1/bits/stl_tree.h **** 		_M_nodes->_M_left = 0;
 522:/opt/gcc-arm-none-eabi-9-2020-q2/arm-none-eabi/include/c++/9.3.1/bits/stl_tree.h **** 	    }
 523:/opt/gcc-arm-none-eabi-9-2020-q2/arm-none-eabi/include/c++/9.3.1/bits/stl_tree.h **** 	  else
 524:/opt/gcc-arm-none-eabi-9-2020-q2/arm-none-eabi/include/c++/9.3.1/bits/stl_tree.h **** 	    _M_root = 0;
 525:/opt/gcc-arm-none-eabi-9-2020-q2/arm-none-eabi/include/c++/9.3.1/bits/stl_tree.h **** 
 526:/opt/gcc-arm-none-eabi-9-2020-q2/arm-none-eabi/include/c++/9.3.1/bits/stl_tree.h **** 	  return __node;
 527:/opt/gcc-arm-none-eabi-9-2020-q2/arm-none-eabi/include/c++/9.3.1/bits/stl_tree.h **** 	}
 528:/opt/gcc-arm-none-eabi-9-2020-q2/arm-none-eabi/include/c++/9.3.1/bits/stl_tree.h **** 
 529:/opt/gcc-arm-none-eabi-9-2020-q2/arm-none-eabi/include/c++/9.3.1/bits/stl_tree.h **** 	_Base_ptr _M_root;
 530:/opt/gcc-arm-none-eabi-9-2020-q2/arm-none-eabi/include/c++/9.3.1/bits/stl_tree.h **** 	_Base_ptr _M_nodes;
 531:/opt/gcc-arm-none-eabi-9-2020-q2/arm-none-eabi/include/c++/9.3.1/bits/stl_tree.h **** 	_Rb_tree& _M_t;
 532:/opt/gcc-arm-none-eabi-9-2020-q2/arm-none-eabi/include/c++/9.3.1/bits/stl_tree.h ****       };
 533:/opt/gcc-arm-none-eabi-9-2020-q2/arm-none-eabi/include/c++/9.3.1/bits/stl_tree.h **** 
 534:/opt/gcc-arm-none-eabi-9-2020-q2/arm-none-eabi/include/c++/9.3.1/bits/stl_tree.h ****       // Functor similar to the previous one but without any pool of nodes to
 535:/opt/gcc-arm-none-eabi-9-2020-q2/arm-none-eabi/include/c++/9.3.1/bits/stl_tree.h ****       // recycle.
 536:/opt/gcc-arm-none-eabi-9-2020-q2/arm-none-eabi/include/c++/9.3.1/bits/stl_tree.h ****       struct _Alloc_node
 537:/opt/gcc-arm-none-eabi-9-2020-q2/arm-none-eabi/include/c++/9.3.1/bits/stl_tree.h ****       {
 538:/opt/gcc-arm-none-eabi-9-2020-q2/arm-none-eabi/include/c++/9.3.1/bits/stl_tree.h **** 	_Alloc_node(_Rb_tree& __t)
 539:/opt/gcc-arm-none-eabi-9-2020-q2/arm-none-eabi/include/c++/9.3.1/bits/stl_tree.h **** 	: _M_t(__t) { }
 540:/opt/gcc-arm-none-eabi-9-2020-q2/arm-none-eabi/include/c++/9.3.1/bits/stl_tree.h **** 
 541:/opt/gcc-arm-none-eabi-9-2020-q2/arm-none-eabi/include/c++/9.3.1/bits/stl_tree.h **** 	template<typename _Arg>
 542:/opt/gcc-arm-none-eabi-9-2020-q2/arm-none-eabi/include/c++/9.3.1/bits/stl_tree.h **** 	  _Link_type
 543:/opt/gcc-arm-none-eabi-9-2020-q2/arm-none-eabi/include/c++/9.3.1/bits/stl_tree.h **** #if __cplusplus < 201103L
 544:/opt/gcc-arm-none-eabi-9-2020-q2/arm-none-eabi/include/c++/9.3.1/bits/stl_tree.h **** 	  operator()(const _Arg& __arg) const
 545:/opt/gcc-arm-none-eabi-9-2020-q2/arm-none-eabi/include/c++/9.3.1/bits/stl_tree.h **** #else
ARM GAS  /tmp/ccSnm6QV.s 			page 40


 546:/opt/gcc-arm-none-eabi-9-2020-q2/arm-none-eabi/include/c++/9.3.1/bits/stl_tree.h **** 	  operator()(_Arg&& __arg) const
 547:/opt/gcc-arm-none-eabi-9-2020-q2/arm-none-eabi/include/c++/9.3.1/bits/stl_tree.h **** #endif
 548:/opt/gcc-arm-none-eabi-9-2020-q2/arm-none-eabi/include/c++/9.3.1/bits/stl_tree.h **** 	  { return _M_t._M_create_node(_GLIBCXX_FORWARD(_Arg, __arg)); }
 549:/opt/gcc-arm-none-eabi-9-2020-q2/arm-none-eabi/include/c++/9.3.1/bits/stl_tree.h **** 
 550:/opt/gcc-arm-none-eabi-9-2020-q2/arm-none-eabi/include/c++/9.3.1/bits/stl_tree.h ****       private:
 551:/opt/gcc-arm-none-eabi-9-2020-q2/arm-none-eabi/include/c++/9.3.1/bits/stl_tree.h **** 	_Rb_tree& _M_t;
 552:/opt/gcc-arm-none-eabi-9-2020-q2/arm-none-eabi/include/c++/9.3.1/bits/stl_tree.h ****       };
 553:/opt/gcc-arm-none-eabi-9-2020-q2/arm-none-eabi/include/c++/9.3.1/bits/stl_tree.h **** 
 554:/opt/gcc-arm-none-eabi-9-2020-q2/arm-none-eabi/include/c++/9.3.1/bits/stl_tree.h ****     public:
 555:/opt/gcc-arm-none-eabi-9-2020-q2/arm-none-eabi/include/c++/9.3.1/bits/stl_tree.h ****       typedef _Key 				key_type;
 556:/opt/gcc-arm-none-eabi-9-2020-q2/arm-none-eabi/include/c++/9.3.1/bits/stl_tree.h ****       typedef _Val 				value_type;
 557:/opt/gcc-arm-none-eabi-9-2020-q2/arm-none-eabi/include/c++/9.3.1/bits/stl_tree.h ****       typedef value_type* 			pointer;
 558:/opt/gcc-arm-none-eabi-9-2020-q2/arm-none-eabi/include/c++/9.3.1/bits/stl_tree.h ****       typedef const value_type* 		const_pointer;
 559:/opt/gcc-arm-none-eabi-9-2020-q2/arm-none-eabi/include/c++/9.3.1/bits/stl_tree.h ****       typedef value_type& 			reference;
 560:/opt/gcc-arm-none-eabi-9-2020-q2/arm-none-eabi/include/c++/9.3.1/bits/stl_tree.h ****       typedef const value_type& 		const_reference;
 561:/opt/gcc-arm-none-eabi-9-2020-q2/arm-none-eabi/include/c++/9.3.1/bits/stl_tree.h ****       typedef size_t 				size_type;
 562:/opt/gcc-arm-none-eabi-9-2020-q2/arm-none-eabi/include/c++/9.3.1/bits/stl_tree.h ****       typedef ptrdiff_t 			difference_type;
 563:/opt/gcc-arm-none-eabi-9-2020-q2/arm-none-eabi/include/c++/9.3.1/bits/stl_tree.h ****       typedef _Alloc 				allocator_type;
 564:/opt/gcc-arm-none-eabi-9-2020-q2/arm-none-eabi/include/c++/9.3.1/bits/stl_tree.h **** 
 565:/opt/gcc-arm-none-eabi-9-2020-q2/arm-none-eabi/include/c++/9.3.1/bits/stl_tree.h ****       _Node_allocator&
 566:/opt/gcc-arm-none-eabi-9-2020-q2/arm-none-eabi/include/c++/9.3.1/bits/stl_tree.h ****       _M_get_Node_allocator() _GLIBCXX_NOEXCEPT
 567:/opt/gcc-arm-none-eabi-9-2020-q2/arm-none-eabi/include/c++/9.3.1/bits/stl_tree.h ****       { return this->_M_impl; }
 568:/opt/gcc-arm-none-eabi-9-2020-q2/arm-none-eabi/include/c++/9.3.1/bits/stl_tree.h **** 
 569:/opt/gcc-arm-none-eabi-9-2020-q2/arm-none-eabi/include/c++/9.3.1/bits/stl_tree.h ****       const _Node_allocator&
 570:/opt/gcc-arm-none-eabi-9-2020-q2/arm-none-eabi/include/c++/9.3.1/bits/stl_tree.h ****       _M_get_Node_allocator() const _GLIBCXX_NOEXCEPT
 571:/opt/gcc-arm-none-eabi-9-2020-q2/arm-none-eabi/include/c++/9.3.1/bits/stl_tree.h ****       { return this->_M_impl; }
 572:/opt/gcc-arm-none-eabi-9-2020-q2/arm-none-eabi/include/c++/9.3.1/bits/stl_tree.h **** 
 573:/opt/gcc-arm-none-eabi-9-2020-q2/arm-none-eabi/include/c++/9.3.1/bits/stl_tree.h ****       allocator_type
 574:/opt/gcc-arm-none-eabi-9-2020-q2/arm-none-eabi/include/c++/9.3.1/bits/stl_tree.h ****       get_allocator() const _GLIBCXX_NOEXCEPT
 575:/opt/gcc-arm-none-eabi-9-2020-q2/arm-none-eabi/include/c++/9.3.1/bits/stl_tree.h ****       { return allocator_type(_M_get_Node_allocator()); }
 576:/opt/gcc-arm-none-eabi-9-2020-q2/arm-none-eabi/include/c++/9.3.1/bits/stl_tree.h **** 
 577:/opt/gcc-arm-none-eabi-9-2020-q2/arm-none-eabi/include/c++/9.3.1/bits/stl_tree.h ****     protected:
 578:/opt/gcc-arm-none-eabi-9-2020-q2/arm-none-eabi/include/c++/9.3.1/bits/stl_tree.h ****       _Link_type
 579:/opt/gcc-arm-none-eabi-9-2020-q2/arm-none-eabi/include/c++/9.3.1/bits/stl_tree.h ****       _M_get_node()
 580:/opt/gcc-arm-none-eabi-9-2020-q2/arm-none-eabi/include/c++/9.3.1/bits/stl_tree.h ****       { return _Alloc_traits::allocate(_M_get_Node_allocator(), 1); }
 581:/opt/gcc-arm-none-eabi-9-2020-q2/arm-none-eabi/include/c++/9.3.1/bits/stl_tree.h **** 
 582:/opt/gcc-arm-none-eabi-9-2020-q2/arm-none-eabi/include/c++/9.3.1/bits/stl_tree.h ****       void
 583:/opt/gcc-arm-none-eabi-9-2020-q2/arm-none-eabi/include/c++/9.3.1/bits/stl_tree.h ****       _M_put_node(_Link_type __p) _GLIBCXX_NOEXCEPT
 584:/opt/gcc-arm-none-eabi-9-2020-q2/arm-none-eabi/include/c++/9.3.1/bits/stl_tree.h ****       { _Alloc_traits::deallocate(_M_get_Node_allocator(), __p, 1); }
 585:/opt/gcc-arm-none-eabi-9-2020-q2/arm-none-eabi/include/c++/9.3.1/bits/stl_tree.h **** 
 586:/opt/gcc-arm-none-eabi-9-2020-q2/arm-none-eabi/include/c++/9.3.1/bits/stl_tree.h **** #if __cplusplus < 201103L
 587:/opt/gcc-arm-none-eabi-9-2020-q2/arm-none-eabi/include/c++/9.3.1/bits/stl_tree.h ****       void
 588:/opt/gcc-arm-none-eabi-9-2020-q2/arm-none-eabi/include/c++/9.3.1/bits/stl_tree.h ****       _M_construct_node(_Link_type __node, const value_type& __x)
 589:/opt/gcc-arm-none-eabi-9-2020-q2/arm-none-eabi/include/c++/9.3.1/bits/stl_tree.h ****       {
 590:/opt/gcc-arm-none-eabi-9-2020-q2/arm-none-eabi/include/c++/9.3.1/bits/stl_tree.h **** 	__try
 591:/opt/gcc-arm-none-eabi-9-2020-q2/arm-none-eabi/include/c++/9.3.1/bits/stl_tree.h **** 	  { get_allocator().construct(__node->_M_valptr(), __x); }
 592:/opt/gcc-arm-none-eabi-9-2020-q2/arm-none-eabi/include/c++/9.3.1/bits/stl_tree.h **** 	__catch(...)
 593:/opt/gcc-arm-none-eabi-9-2020-q2/arm-none-eabi/include/c++/9.3.1/bits/stl_tree.h **** 	  {
 594:/opt/gcc-arm-none-eabi-9-2020-q2/arm-none-eabi/include/c++/9.3.1/bits/stl_tree.h **** 	    _M_put_node(__node);
 595:/opt/gcc-arm-none-eabi-9-2020-q2/arm-none-eabi/include/c++/9.3.1/bits/stl_tree.h **** 	    __throw_exception_again;
 596:/opt/gcc-arm-none-eabi-9-2020-q2/arm-none-eabi/include/c++/9.3.1/bits/stl_tree.h **** 	  }
 597:/opt/gcc-arm-none-eabi-9-2020-q2/arm-none-eabi/include/c++/9.3.1/bits/stl_tree.h ****       }
 598:/opt/gcc-arm-none-eabi-9-2020-q2/arm-none-eabi/include/c++/9.3.1/bits/stl_tree.h **** 
 599:/opt/gcc-arm-none-eabi-9-2020-q2/arm-none-eabi/include/c++/9.3.1/bits/stl_tree.h ****       _Link_type
 600:/opt/gcc-arm-none-eabi-9-2020-q2/arm-none-eabi/include/c++/9.3.1/bits/stl_tree.h ****       _M_create_node(const value_type& __x)
 601:/opt/gcc-arm-none-eabi-9-2020-q2/arm-none-eabi/include/c++/9.3.1/bits/stl_tree.h ****       {
 602:/opt/gcc-arm-none-eabi-9-2020-q2/arm-none-eabi/include/c++/9.3.1/bits/stl_tree.h **** 	_Link_type __tmp = _M_get_node();
ARM GAS  /tmp/ccSnm6QV.s 			page 41


 603:/opt/gcc-arm-none-eabi-9-2020-q2/arm-none-eabi/include/c++/9.3.1/bits/stl_tree.h **** 	_M_construct_node(__tmp, __x);
 604:/opt/gcc-arm-none-eabi-9-2020-q2/arm-none-eabi/include/c++/9.3.1/bits/stl_tree.h **** 	return __tmp;
 605:/opt/gcc-arm-none-eabi-9-2020-q2/arm-none-eabi/include/c++/9.3.1/bits/stl_tree.h ****       }
 606:/opt/gcc-arm-none-eabi-9-2020-q2/arm-none-eabi/include/c++/9.3.1/bits/stl_tree.h **** #else
 607:/opt/gcc-arm-none-eabi-9-2020-q2/arm-none-eabi/include/c++/9.3.1/bits/stl_tree.h ****       template<typename... _Args>
 608:/opt/gcc-arm-none-eabi-9-2020-q2/arm-none-eabi/include/c++/9.3.1/bits/stl_tree.h **** 	void
 609:/opt/gcc-arm-none-eabi-9-2020-q2/arm-none-eabi/include/c++/9.3.1/bits/stl_tree.h **** 	_M_construct_node(_Link_type __node, _Args&&... __args)
 610:/opt/gcc-arm-none-eabi-9-2020-q2/arm-none-eabi/include/c++/9.3.1/bits/stl_tree.h **** 	{
 611:/opt/gcc-arm-none-eabi-9-2020-q2/arm-none-eabi/include/c++/9.3.1/bits/stl_tree.h **** 	  __try
 612:/opt/gcc-arm-none-eabi-9-2020-q2/arm-none-eabi/include/c++/9.3.1/bits/stl_tree.h **** 	    {
 613:/opt/gcc-arm-none-eabi-9-2020-q2/arm-none-eabi/include/c++/9.3.1/bits/stl_tree.h **** 	      ::new(__node) _Rb_tree_node<_Val>;
 614:/opt/gcc-arm-none-eabi-9-2020-q2/arm-none-eabi/include/c++/9.3.1/bits/stl_tree.h **** 	      _Alloc_traits::construct(_M_get_Node_allocator(),
 615:/opt/gcc-arm-none-eabi-9-2020-q2/arm-none-eabi/include/c++/9.3.1/bits/stl_tree.h **** 				       __node->_M_valptr(),
 616:/opt/gcc-arm-none-eabi-9-2020-q2/arm-none-eabi/include/c++/9.3.1/bits/stl_tree.h **** 				       std::forward<_Args>(__args)...);
 617:/opt/gcc-arm-none-eabi-9-2020-q2/arm-none-eabi/include/c++/9.3.1/bits/stl_tree.h **** 	    }
 618:/opt/gcc-arm-none-eabi-9-2020-q2/arm-none-eabi/include/c++/9.3.1/bits/stl_tree.h **** 	  __catch(...)
 619:/opt/gcc-arm-none-eabi-9-2020-q2/arm-none-eabi/include/c++/9.3.1/bits/stl_tree.h **** 	    {
 620:/opt/gcc-arm-none-eabi-9-2020-q2/arm-none-eabi/include/c++/9.3.1/bits/stl_tree.h **** 	      __node->~_Rb_tree_node<_Val>();
 621:/opt/gcc-arm-none-eabi-9-2020-q2/arm-none-eabi/include/c++/9.3.1/bits/stl_tree.h **** 	      _M_put_node(__node);
 622:/opt/gcc-arm-none-eabi-9-2020-q2/arm-none-eabi/include/c++/9.3.1/bits/stl_tree.h **** 	      __throw_exception_again;
 623:/opt/gcc-arm-none-eabi-9-2020-q2/arm-none-eabi/include/c++/9.3.1/bits/stl_tree.h **** 	    }
 624:/opt/gcc-arm-none-eabi-9-2020-q2/arm-none-eabi/include/c++/9.3.1/bits/stl_tree.h **** 	}
 625:/opt/gcc-arm-none-eabi-9-2020-q2/arm-none-eabi/include/c++/9.3.1/bits/stl_tree.h **** 
 626:/opt/gcc-arm-none-eabi-9-2020-q2/arm-none-eabi/include/c++/9.3.1/bits/stl_tree.h ****       template<typename... _Args>
 627:/opt/gcc-arm-none-eabi-9-2020-q2/arm-none-eabi/include/c++/9.3.1/bits/stl_tree.h **** 	_Link_type
 628:/opt/gcc-arm-none-eabi-9-2020-q2/arm-none-eabi/include/c++/9.3.1/bits/stl_tree.h **** 	_M_create_node(_Args&&... __args)
 629:/opt/gcc-arm-none-eabi-9-2020-q2/arm-none-eabi/include/c++/9.3.1/bits/stl_tree.h **** 	{
 630:/opt/gcc-arm-none-eabi-9-2020-q2/arm-none-eabi/include/c++/9.3.1/bits/stl_tree.h **** 	  _Link_type __tmp = _M_get_node();
 631:/opt/gcc-arm-none-eabi-9-2020-q2/arm-none-eabi/include/c++/9.3.1/bits/stl_tree.h **** 	  _M_construct_node(__tmp, std::forward<_Args>(__args)...);
 632:/opt/gcc-arm-none-eabi-9-2020-q2/arm-none-eabi/include/c++/9.3.1/bits/stl_tree.h **** 	  return __tmp;
 633:/opt/gcc-arm-none-eabi-9-2020-q2/arm-none-eabi/include/c++/9.3.1/bits/stl_tree.h **** 	}
 634:/opt/gcc-arm-none-eabi-9-2020-q2/arm-none-eabi/include/c++/9.3.1/bits/stl_tree.h **** #endif
 635:/opt/gcc-arm-none-eabi-9-2020-q2/arm-none-eabi/include/c++/9.3.1/bits/stl_tree.h **** 
 636:/opt/gcc-arm-none-eabi-9-2020-q2/arm-none-eabi/include/c++/9.3.1/bits/stl_tree.h ****       void
 637:/opt/gcc-arm-none-eabi-9-2020-q2/arm-none-eabi/include/c++/9.3.1/bits/stl_tree.h ****       _M_destroy_node(_Link_type __p) _GLIBCXX_NOEXCEPT
 638:/opt/gcc-arm-none-eabi-9-2020-q2/arm-none-eabi/include/c++/9.3.1/bits/stl_tree.h ****       {
 639:/opt/gcc-arm-none-eabi-9-2020-q2/arm-none-eabi/include/c++/9.3.1/bits/stl_tree.h **** #if __cplusplus < 201103L
 640:/opt/gcc-arm-none-eabi-9-2020-q2/arm-none-eabi/include/c++/9.3.1/bits/stl_tree.h **** 	get_allocator().destroy(__p->_M_valptr());
 641:/opt/gcc-arm-none-eabi-9-2020-q2/arm-none-eabi/include/c++/9.3.1/bits/stl_tree.h **** #else
 642:/opt/gcc-arm-none-eabi-9-2020-q2/arm-none-eabi/include/c++/9.3.1/bits/stl_tree.h **** 	_Alloc_traits::destroy(_M_get_Node_allocator(), __p->_M_valptr());
 643:/opt/gcc-arm-none-eabi-9-2020-q2/arm-none-eabi/include/c++/9.3.1/bits/stl_tree.h **** 	__p->~_Rb_tree_node<_Val>();
 644:/opt/gcc-arm-none-eabi-9-2020-q2/arm-none-eabi/include/c++/9.3.1/bits/stl_tree.h **** #endif
 645:/opt/gcc-arm-none-eabi-9-2020-q2/arm-none-eabi/include/c++/9.3.1/bits/stl_tree.h ****       }
 646:/opt/gcc-arm-none-eabi-9-2020-q2/arm-none-eabi/include/c++/9.3.1/bits/stl_tree.h **** 
 647:/opt/gcc-arm-none-eabi-9-2020-q2/arm-none-eabi/include/c++/9.3.1/bits/stl_tree.h ****       void
 648:/opt/gcc-arm-none-eabi-9-2020-q2/arm-none-eabi/include/c++/9.3.1/bits/stl_tree.h ****       _M_drop_node(_Link_type __p) _GLIBCXX_NOEXCEPT
 649:/opt/gcc-arm-none-eabi-9-2020-q2/arm-none-eabi/include/c++/9.3.1/bits/stl_tree.h ****       {
 650:/opt/gcc-arm-none-eabi-9-2020-q2/arm-none-eabi/include/c++/9.3.1/bits/stl_tree.h **** 	_M_destroy_node(__p);
 651:/opt/gcc-arm-none-eabi-9-2020-q2/arm-none-eabi/include/c++/9.3.1/bits/stl_tree.h **** 	_M_put_node(__p);
 652:/opt/gcc-arm-none-eabi-9-2020-q2/arm-none-eabi/include/c++/9.3.1/bits/stl_tree.h ****       }
 653:/opt/gcc-arm-none-eabi-9-2020-q2/arm-none-eabi/include/c++/9.3.1/bits/stl_tree.h **** 
 654:/opt/gcc-arm-none-eabi-9-2020-q2/arm-none-eabi/include/c++/9.3.1/bits/stl_tree.h ****       template<typename _NodeGen>
 655:/opt/gcc-arm-none-eabi-9-2020-q2/arm-none-eabi/include/c++/9.3.1/bits/stl_tree.h **** 	_Link_type
 656:/opt/gcc-arm-none-eabi-9-2020-q2/arm-none-eabi/include/c++/9.3.1/bits/stl_tree.h **** 	_M_clone_node(_Const_Link_type __x, _NodeGen& __node_gen)
 657:/opt/gcc-arm-none-eabi-9-2020-q2/arm-none-eabi/include/c++/9.3.1/bits/stl_tree.h **** 	{
 658:/opt/gcc-arm-none-eabi-9-2020-q2/arm-none-eabi/include/c++/9.3.1/bits/stl_tree.h **** 	  _Link_type __tmp = __node_gen(*__x->_M_valptr());
 659:/opt/gcc-arm-none-eabi-9-2020-q2/arm-none-eabi/include/c++/9.3.1/bits/stl_tree.h **** 	  __tmp->_M_color = __x->_M_color;
ARM GAS  /tmp/ccSnm6QV.s 			page 42


 660:/opt/gcc-arm-none-eabi-9-2020-q2/arm-none-eabi/include/c++/9.3.1/bits/stl_tree.h **** 	  __tmp->_M_left = 0;
 661:/opt/gcc-arm-none-eabi-9-2020-q2/arm-none-eabi/include/c++/9.3.1/bits/stl_tree.h **** 	  __tmp->_M_right = 0;
 662:/opt/gcc-arm-none-eabi-9-2020-q2/arm-none-eabi/include/c++/9.3.1/bits/stl_tree.h **** 	  return __tmp;
 663:/opt/gcc-arm-none-eabi-9-2020-q2/arm-none-eabi/include/c++/9.3.1/bits/stl_tree.h **** 	}
 664:/opt/gcc-arm-none-eabi-9-2020-q2/arm-none-eabi/include/c++/9.3.1/bits/stl_tree.h **** 
 665:/opt/gcc-arm-none-eabi-9-2020-q2/arm-none-eabi/include/c++/9.3.1/bits/stl_tree.h ****     protected:
 666:/opt/gcc-arm-none-eabi-9-2020-q2/arm-none-eabi/include/c++/9.3.1/bits/stl_tree.h **** #if _GLIBCXX_INLINE_VERSION
 667:/opt/gcc-arm-none-eabi-9-2020-q2/arm-none-eabi/include/c++/9.3.1/bits/stl_tree.h ****       template<typename _Key_compare>
 668:/opt/gcc-arm-none-eabi-9-2020-q2/arm-none-eabi/include/c++/9.3.1/bits/stl_tree.h **** #else
 669:/opt/gcc-arm-none-eabi-9-2020-q2/arm-none-eabi/include/c++/9.3.1/bits/stl_tree.h ****       // Unused _Is_pod_comparator is kept as it is part of mangled name.
